

Microchip MPLAB XC8 Assembler V2.31 build 20201012212115 
                                                                                               Tue Feb 23 21:10:18 2021

Microchip MPLAB XC8 C Compiler v2.31 (Free license) build 20201012212115 Og1 
     1                           	processor	16F887
     2                           	pagewidth 120
     3                           	opt	flic
     4                           	psect	nvBANK0,global,class=BANK0,space=1,delta=1,noexec
     5                           	psect	cinit,global,class=CODE,merge=1,delta=2
     6                           	psect	cstackCOMMON,global,class=COMMON,space=1,delta=1,noexec
     7                           	psect	cstackBANK0,global,class=BANK0,space=1,delta=1,noexec
     8                           	psect	maintext,global,class=CODE,split=1,delta=2
     9                           	psect	text1,local,class=CODE,merge=1,delta=2
    10                           	psect	text2,local,class=CODE,merge=1,delta=2
    11                           	psect	text3,local,class=CODE,merge=1,delta=2,group=1
    12                           	psect	text4,local,class=CODE,merge=1,delta=2,group=1
    13                           	psect	text5,local,class=CODE,merge=1,delta=2,group=1
    14                           	psect	text6,local,class=CODE,merge=1,delta=2
    15                           	psect	text7,local,class=CODE,merge=1,delta=2
    16                           	psect	text8,local,class=CODE,merge=1,delta=2
    17                           	psect	text9,local,class=CODE,merge=1,delta=2
    18                           	psect	text10,local,class=CODE,merge=1,delta=2
    19                           	psect	intentry,global,class=CODE,delta=2
    20                           	psect	text11,local,class=CODE,merge=1,delta=2,group=1
    21                           	psect	config,global,abs,ovrld,class=CONFIG,space=4,delta=2,noexec
    22                           	dabs	1,0x7E,2
    23  0000                     
    24                           ; Version 2.20
    25                           ; Generated 12/02/2020 GMT
    26                           ; 
    27                           ; Copyright © 2020, Microchip Technology Inc. and its subsidiaries ("Microchip")
    28                           ; All rights reserved.
    29                           ; 
    30                           ; This software is developed by Microchip Technology Inc. and its subsidiaries ("Microch
      +                          ip").
    31                           ; 
    32                           ; Redistribution and use in source and binary forms, with or without modification, are
    33                           ; permitted provided that the following conditions are met:
    34                           ; 
    35                           ;     1. Redistributions of source code must retain the above copyright notice, this lis
      +                          t of
    36                           ;        conditions and the following disclaimer.
    37                           ; 
    38                           ;     2. Redistributions in binary form must reproduce the above copyright notice, this 
      +                          list
    39                           ;        of conditions and the following disclaimer in the documentation and/or other
    40                           ;        materials provided with the distribution.
    41                           ; 
    42                           ;     3. Microchip's name may not be used to endorse or promote products derived from th
      +                          is
    43                           ;        software without specific prior written permission.
    44                           ; 
    45                           ; THIS SOFTWARE IS PROVIDED BY MICROCHIP "AS IS" AND ANY EXPRESS OR IMPLIED WARRANTIES,
    46                           ; INCLUDING, BUT NOT LIMITED TO, THE IMPLIED WARRANTIES OF MERCHANTABILITY AND FITNESS F
      +                          OR
    47                           ; PURPOSE ARE DISCLAIMED.  IN NO EVENT SHALL MICROCHIP BE LIABLE FOR ANY DIRECT, INDIREC
      +                          T,
    48                           ; INCIDENTAL, SPECIAL, EXEMPLARY, OR CONSEQUENTIAL DAMAGES (INCLUDING BUT NOT LIMITED TO
    49                           ; PROCUREMENT OF SUBSTITUTE GOODS OR SERVICES; LOSS OF USE, DATA OR PROFITS; OR BUSINESS
    50                           ; INTERRUPTION) HOWSOEVER CAUSED AND ON ANY THEORY OF LIABILITY, WHETHER IN CONTRACT, ST
      +                          RICT
    51                           ; LIABILITY, OR TORT (INCLUDING NEGLIGENCE OR OTHERWISE) ARISING IN ANY WAY OUT OF THE U
      +                          SE OF
    52                           ; THIS SOFTWARE, EVEN IF ADVISED OF THE POSSIBILITY OF SUCH DAMAGE.
    53                           ; 
    54                           ; 
    55                           ; Code-generator required, PIC16F887 Definitions
    56                           ; 
    57                           ; SFR Addresses
    58  0000                     	;# 
    59  0001                     	;# 
    60  0002                     	;# 
    61  0003                     	;# 
    62  0004                     	;# 
    63  0005                     	;# 
    64  0006                     	;# 
    65  0007                     	;# 
    66  0008                     	;# 
    67  0009                     	;# 
    68  000A                     	;# 
    69  000B                     	;# 
    70  000C                     	;# 
    71  000D                     	;# 
    72  000E                     	;# 
    73  000E                     	;# 
    74  000F                     	;# 
    75  0010                     	;# 
    76  0011                     	;# 
    77  0012                     	;# 
    78  0013                     	;# 
    79  0014                     	;# 
    80  0015                     	;# 
    81  0015                     	;# 
    82  0016                     	;# 
    83  0017                     	;# 
    84  0018                     	;# 
    85  0019                     	;# 
    86  001A                     	;# 
    87  001B                     	;# 
    88  001B                     	;# 
    89  001C                     	;# 
    90  001D                     	;# 
    91  001E                     	;# 
    92  001F                     	;# 
    93  0081                     	;# 
    94  0085                     	;# 
    95  0086                     	;# 
    96  0087                     	;# 
    97  0088                     	;# 
    98  0089                     	;# 
    99  008C                     	;# 
   100  008D                     	;# 
   101  008E                     	;# 
   102  008F                     	;# 
   103  0090                     	;# 
   104  0091                     	;# 
   105  0092                     	;# 
   106  0093                     	;# 
   107  0093                     	;# 
   108  0093                     	;# 
   109  0094                     	;# 
   110  0095                     	;# 
   111  0096                     	;# 
   112  0097                     	;# 
   113  0098                     	;# 
   114  0099                     	;# 
   115  009A                     	;# 
   116  009B                     	;# 
   117  009C                     	;# 
   118  009D                     	;# 
   119  009E                     	;# 
   120  009F                     	;# 
   121  0105                     	;# 
   122  0107                     	;# 
   123  0108                     	;# 
   124  0109                     	;# 
   125  010C                     	;# 
   126  010C                     	;# 
   127  010D                     	;# 
   128  010E                     	;# 
   129  010F                     	;# 
   130  0185                     	;# 
   131  0187                     	;# 
   132  0188                     	;# 
   133  0189                     	;# 
   134  018C                     	;# 
   135  018D                     	;# 
   136  0000                     	;# 
   137  0001                     	;# 
   138  0002                     	;# 
   139  0003                     	;# 
   140  0004                     	;# 
   141  0005                     	;# 
   142  0006                     	;# 
   143  0007                     	;# 
   144  0008                     	;# 
   145  0009                     	;# 
   146  000A                     	;# 
   147  000B                     	;# 
   148  000C                     	;# 
   149  000D                     	;# 
   150  000E                     	;# 
   151  000E                     	;# 
   152  000F                     	;# 
   153  0010                     	;# 
   154  0011                     	;# 
   155  0012                     	;# 
   156  0013                     	;# 
   157  0014                     	;# 
   158  0015                     	;# 
   159  0015                     	;# 
   160  0016                     	;# 
   161  0017                     	;# 
   162  0018                     	;# 
   163  0019                     	;# 
   164  001A                     	;# 
   165  001B                     	;# 
   166  001B                     	;# 
   167  001C                     	;# 
   168  001D                     	;# 
   169  001E                     	;# 
   170  001F                     	;# 
   171  0081                     	;# 
   172  0085                     	;# 
   173  0086                     	;# 
   174  0087                     	;# 
   175  0088                     	;# 
   176  0089                     	;# 
   177  008C                     	;# 
   178  008D                     	;# 
   179  008E                     	;# 
   180  008F                     	;# 
   181  0090                     	;# 
   182  0091                     	;# 
   183  0092                     	;# 
   184  0093                     	;# 
   185  0093                     	;# 
   186  0093                     	;# 
   187  0094                     	;# 
   188  0095                     	;# 
   189  0096                     	;# 
   190  0097                     	;# 
   191  0098                     	;# 
   192  0099                     	;# 
   193  009A                     	;# 
   194  009B                     	;# 
   195  009C                     	;# 
   196  009D                     	;# 
   197  009E                     	;# 
   198  009F                     	;# 
   199  0105                     	;# 
   200  0107                     	;# 
   201  0108                     	;# 
   202  0109                     	;# 
   203  010C                     	;# 
   204  010C                     	;# 
   205  010D                     	;# 
   206  010E                     	;# 
   207  010F                     	;# 
   208  0185                     	;# 
   209  0187                     	;# 
   210  0188                     	;# 
   211  0189                     	;# 
   212  018C                     	;# 
   213  018D                     	;# 
   214  0000                     	;# 
   215  0001                     	;# 
   216  0002                     	;# 
   217  0003                     	;# 
   218  0004                     	;# 
   219  0005                     	;# 
   220  0006                     	;# 
   221  0007                     	;# 
   222  0008                     	;# 
   223  0009                     	;# 
   224  000A                     	;# 
   225  000B                     	;# 
   226  000C                     	;# 
   227  000D                     	;# 
   228  000E                     	;# 
   229  000E                     	;# 
   230  000F                     	;# 
   231  0010                     	;# 
   232  0011                     	;# 
   233  0012                     	;# 
   234  0013                     	;# 
   235  0014                     	;# 
   236  0015                     	;# 
   237  0015                     	;# 
   238  0016                     	;# 
   239  0017                     	;# 
   240  0018                     	;# 
   241  0019                     	;# 
   242  001A                     	;# 
   243  001B                     	;# 
   244  001B                     	;# 
   245  001C                     	;# 
   246  001D                     	;# 
   247  001E                     	;# 
   248  001F                     	;# 
   249  0081                     	;# 
   250  0085                     	;# 
   251  0086                     	;# 
   252  0087                     	;# 
   253  0088                     	;# 
   254  0089                     	;# 
   255  008C                     	;# 
   256  008D                     	;# 
   257  008E                     	;# 
   258  008F                     	;# 
   259  0090                     	;# 
   260  0091                     	;# 
   261  0092                     	;# 
   262  0093                     	;# 
   263  0093                     	;# 
   264  0093                     	;# 
   265  0094                     	;# 
   266  0095                     	;# 
   267  0096                     	;# 
   268  0097                     	;# 
   269  0098                     	;# 
   270  0099                     	;# 
   271  009A                     	;# 
   272  009B                     	;# 
   273  009C                     	;# 
   274  009D                     	;# 
   275  009E                     	;# 
   276  009F                     	;# 
   277  0105                     	;# 
   278  0107                     	;# 
   279  0108                     	;# 
   280  0109                     	;# 
   281  010C                     	;# 
   282  010C                     	;# 
   283  010D                     	;# 
   284  010E                     	;# 
   285  010F                     	;# 
   286  0185                     	;# 
   287  0187                     	;# 
   288  0188                     	;# 
   289  0189                     	;# 
   290  018C                     	;# 
   291  018D                     	;# 
   292  0000                     	;# 
   293  0001                     	;# 
   294  0002                     	;# 
   295  0003                     	;# 
   296  0004                     	;# 
   297  0005                     	;# 
   298  0006                     	;# 
   299  0007                     	;# 
   300  0008                     	;# 
   301  0009                     	;# 
   302  000A                     	;# 
   303  000B                     	;# 
   304  000C                     	;# 
   305  000D                     	;# 
   306  000E                     	;# 
   307  000E                     	;# 
   308  000F                     	;# 
   309  0010                     	;# 
   310  0011                     	;# 
   311  0012                     	;# 
   312  0013                     	;# 
   313  0014                     	;# 
   314  0015                     	;# 
   315  0015                     	;# 
   316  0016                     	;# 
   317  0017                     	;# 
   318  0018                     	;# 
   319  0019                     	;# 
   320  001A                     	;# 
   321  001B                     	;# 
   322  001B                     	;# 
   323  001C                     	;# 
   324  001D                     	;# 
   325  001E                     	;# 
   326  001F                     	;# 
   327  0081                     	;# 
   328  0085                     	;# 
   329  0086                     	;# 
   330  0087                     	;# 
   331  0088                     	;# 
   332  0089                     	;# 
   333  008C                     	;# 
   334  008D                     	;# 
   335  008E                     	;# 
   336  008F                     	;# 
   337  0090                     	;# 
   338  0091                     	;# 
   339  0092                     	;# 
   340  0093                     	;# 
   341  0093                     	;# 
   342  0093                     	;# 
   343  0094                     	;# 
   344  0095                     	;# 
   345  0096                     	;# 
   346  0097                     	;# 
   347  0098                     	;# 
   348  0099                     	;# 
   349  009A                     	;# 
   350  009B                     	;# 
   351  009C                     	;# 
   352  009D                     	;# 
   353  009E                     	;# 
   354  009F                     	;# 
   355  0105                     	;# 
   356  0107                     	;# 
   357  0108                     	;# 
   358  0109                     	;# 
   359  010C                     	;# 
   360  010C                     	;# 
   361  010D                     	;# 
   362  010E                     	;# 
   363  010F                     	;# 
   364  0185                     	;# 
   365  0187                     	;# 
   366  0188                     	;# 
   367  0189                     	;# 
   368  018C                     	;# 
   369  018D                     	;# 
   370                           
   371                           	psect	nvBANK0
   372  0052                     __pnvBANK0:
   373  0052                     _V1:
   374  0052                     	ds	4
   375  0056                     _vADC:
   376  0056                     	ds	1
   377  0014                     _SSPCON	set	20
   378  0013                     _SSPBUF	set	19
   379  0008                     _PORTD	set	8
   380  000C                     _PIR1bits	set	12
   381  000B                     _INTCONbits	set	11
   382  0006                     _PORTB	set	6
   383  001E                     _ADRESH	set	30
   384  001F                     _ADCON0bits	set	31
   385  008C                     _PIE1bits	set	140
   386  0094                     _SSPSTAT	set	148
   387  0087                     _TRISCbits	set	135
   388  0094                     _SSPSTATbits	set	148
   389  0086                     _TRISB	set	134
   390  0086                     _TRISBbits	set	134
   391  0089                     _TRISEbits	set	137
   392  0085                     _TRISAbits	set	133
   393  009F                     _ADCON1	set	159
   394  0189                     _ANSELH	set	393
   395  0188                     _ANSEL	set	392
   396  0189                     _ANSELHbits	set	393
   397  0188                     _ANSELbits	set	392
   398                           
   399                           	psect	cinit
   400  000F                     start_initialization:	
   401                           ; #config settings
   402                           
   403  000F                     __initialization:
   404  000F                     end_of_initialization:	
   405                           ;End of C runtime variable initialization code
   406                           
   407  000F                     __end_of__initialization:
   408  000F  0183               	clrf	3
   409  0010  120A  118A  2E0F   	ljmp	_main	;jump to C main() function
   410                           
   411                           	psect	cstackCOMMON
   412  0070                     __pcstackCOMMON:
   413  0070                     ?_SPI_ES:
   414  0070                     ?_config_ADC:	
   415                           ; 1 bytes @ 0x0
   416                           
   417  0070                     ?_ValorADC:	
   418                           ; 1 bytes @ 0x0
   419                           
   420  0070                     ?_Setup:	
   421                           ; 1 bytes @ 0x0
   422                           
   423  0070                     ?_interr:	
   424                           ; 1 bytes @ 0x0
   425                           
   426  0070                     ?_ISR:	
   427                           ; 1 bytes @ 0x0
   428                           
   429  0070                     ?_main:	
   430                           ; 1 bytes @ 0x0
   431                           
   432  0070                     ?___fltol:	
   433                           ; 1 bytes @ 0x0
   434                           
   435  0070                     ___fltol@f1:	
   436                           ; 4 bytes @ 0x0
   437                           
   438                           
   439                           ; 4 bytes @ 0x0
   440  0070                     	ds	4
   441  0074                     ??___fltol:
   442                           
   443                           ; 1 bytes @ 0x4
   444  0074                     	ds	5
   445  0079                     ___fltol@sign1:
   446                           
   447                           ; 1 bytes @ 0x9
   448  0079                     	ds	1
   449  007A                     ___fltol@exp1:
   450                           
   451                           ; 1 bytes @ 0xA
   452  007A                     	ds	1
   453  007B                     ??_ISR:
   454                           
   455                           ; 1 bytes @ 0xB
   456  007B                     	ds	2
   457                           
   458                           	psect	cstackBANK0
   459  0020                     __pcstackBANK0:
   460  0020                     ??_SPI_ES:
   461  0020                     ??_config_ADC:	
   462                           ; 1 bytes @ 0x0
   463                           
   464  0020                     ??_ValorADC:	
   465                           ; 1 bytes @ 0x0
   466                           
   467  0020                     ??_Setup:	
   468                           ; 1 bytes @ 0x0
   469                           
   470  0020                     ??_interr:	
   471                           ; 1 bytes @ 0x0
   472                           
   473  0020                     ?__Umul8_16:	
   474                           ; 1 bytes @ 0x0
   475                           
   476  0020                     ?___xxtofl:	
   477                           ; 2 bytes @ 0x0
   478                           
   479  0020                     __Umul8_16@multiplicand:	
   480                           ; 4 bytes @ 0x0
   481                           
   482  0020                     ___xxtofl@val:	
   483                           ; 1 bytes @ 0x0
   484                           
   485                           
   486                           ; 4 bytes @ 0x0
   487  0020                     	ds	2
   488  0022                     ??__Umul8_16:
   489  0022                     ValorADC@x:	
   490                           ; 1 bytes @ 0x2
   491                           
   492                           
   493                           ; 1 bytes @ 0x2
   494  0022                     	ds	2
   495  0024                     ??___xxtofl:
   496  0024                     __Umul8_16@product:	
   497                           ; 1 bytes @ 0x4
   498                           
   499                           
   500                           ; 2 bytes @ 0x4
   501  0024                     	ds	2
   502  0026                     __Umul8_16@word_mpld:
   503                           
   504                           ; 2 bytes @ 0x6
   505  0026                     	ds	2
   506  0028                     __Umul8_16@multiplier:
   507  0028                     ___xxtofl@sign:	
   508                           ; 1 bytes @ 0x8
   509                           
   510                           
   511                           ; 1 bytes @ 0x8
   512  0028                     	ds	1
   513  0029                     ___xxtofl@exp:
   514                           
   515                           ; 1 bytes @ 0x9
   516  0029                     	ds	1
   517  002A                     ___xxtofl@arg:
   518                           
   519                           ; 4 bytes @ 0xA
   520  002A                     	ds	4
   521  002E                     ?___flmul:
   522  002E                     ___flmul@b:	
   523                           ; 4 bytes @ 0xE
   524                           
   525                           
   526                           ; 4 bytes @ 0xE
   527  002E                     	ds	4
   528  0032                     ___flmul@a:
   529                           
   530                           ; 4 bytes @ 0x12
   531  0032                     	ds	4
   532  0036                     ??___flmul:
   533                           
   534                           ; 1 bytes @ 0x16
   535  0036                     	ds	5
   536  003B                     ___flmul@sign:
   537                           
   538                           ; 1 bytes @ 0x1B
   539  003B                     	ds	1
   540  003C                     ___flmul@grs:
   541                           
   542                           ; 4 bytes @ 0x1C
   543  003C                     	ds	4
   544  0040                     ___flmul@aexp:
   545                           
   546                           ; 1 bytes @ 0x20
   547  0040                     	ds	1
   548  0041                     ___flmul@bexp:
   549                           
   550                           ; 1 bytes @ 0x21
   551  0041                     	ds	1
   552  0042                     ___flmul@prod:
   553                           
   554                           ; 4 bytes @ 0x22
   555  0042                     	ds	4
   556  0046                     ___flmul@temp:
   557                           
   558                           ; 2 bytes @ 0x26
   559  0046                     	ds	2
   560  0048                     ?_conversion:
   561                           
   562                           ; 4 bytes @ 0x28
   563  0048                     	ds	4
   564  004C                     ??_conversion:
   565                           
   566                           ; 1 bytes @ 0x2C
   567  004C                     	ds	4
   568  0050                     conversion@b:
   569                           
   570                           ; 1 bytes @ 0x30
   571  0050                     	ds	1
   572  0051                     ??_main:
   573                           
   574                           ; 1 bytes @ 0x31
   575  0051                     	ds	1
   576                           
   577                           	psect	maintext
   578  060F                     __pmaintext:	
   579 ;;
   580 ;;Main: autosize = 0, tempsize = 1, incstack = 0, save=0
   581 ;;
   582 ;; *************** function _main *****************
   583 ;; Defined at:
   584 ;;		line 94 in file "ESCLAVO_1.c"
   585 ;; Parameters:    Size  Location     Type
   586 ;;		None
   587 ;; Auto vars:     Size  Location     Type
   588 ;;		None
   589 ;; Return value:  Size  Location     Type
   590 ;;                  1    wreg      void 
   591 ;; Registers used:
   592 ;;		wreg, fsr0l, fsr0h, status,2, status,0, btemp+1, pclath, cstack
   593 ;; Tracked objects:
   594 ;;		On entry : B00/0
   595 ;;		On exit  : 0/0
   596 ;;		Unchanged: 0/0
   597 ;; Data sizes:     COMMON   BANK0   BANK1   BANK3   BANK2
   598 ;;      Params:         0       0       0       0       0
   599 ;;      Locals:         0       0       0       0       0
   600 ;;      Temps:          0       1       0       0       0
   601 ;;      Totals:         0       1       0       0       0
   602 ;;Total ram usage:        1 bytes
   603 ;; Hardware stack levels required when called:    5
   604 ;; This function calls:
   605 ;;		_Setup
   606 ;;		_ValorADC
   607 ;;		_conversion
   608 ;;		_interr
   609 ;; This function is called by:
   610 ;;		Startup code after reset
   611 ;; This function uses a non-reentrant model
   612 ;;
   613                           
   614                           
   615                           ;psect for function _main
   616  060F                     _main:
   617  060F                     l1387:	
   618                           ;incstack = 0
   619                           ; Regs used in _main: [wreg-fsr0h+status,2+status,0+btemp+1+pclath+cstack]
   620                           
   621                           
   622                           ;ESCLAVO_1.c: 95:     Setup();
   623  060F  120A  118A  2663  120A  118A  	fcall	_Setup
   624  0614                     l1389:
   625                           
   626                           ;ESCLAVO_1.c: 96:     interr();
   627  0614  120A  118A  2695  120A  118A  	fcall	_interr
   628  0619                     l1391:
   629                           
   630                           ;ESCLAVO_1.c: 98:         vADC= ValorADC(0);
   631  0619  3000               	movlw	0
   632  061A  120A  118A  2374  120A  118A  	fcall	_ValorADC
   633  061F  1283               	bcf	3,5	;RP0=0, select bank0
   634  0620  1303               	bcf	3,6	;RP1=0, select bank0
   635  0621  00D1               	movwf	??_main
   636  0622  0851               	movf	??_main,w
   637  0623  00D6               	movwf	_vADC
   638  0624                     l1393:
   639                           
   640                           ;ESCLAVO_1.c: 99:         V1 = conversion(vADC);
   641  0624  0856               	movf	_vADC,w
   642  0625  120A  118A  25AB  120A  118A  	fcall	_conversion
   643  062A  1283               	bcf	3,5	;RP0=0, select bank0
   644  062B  1303               	bcf	3,6	;RP1=0, select bank0
   645  062C  084B               	movf	?_conversion+3,w
   646  062D  00D5               	movwf	_V1+3
   647  062E  084A               	movf	?_conversion+2,w
   648  062F  00D4               	movwf	_V1+2
   649  0630  0849               	movf	?_conversion+1,w
   650  0631  00D3               	movwf	_V1+1
   651  0632  0848               	movf	?_conversion,w
   652  0633  00D2               	movwf	_V1
   653  0634                     l1395:
   654                           
   655                           ;ESCLAVO_1.c: 100:         PORTB=vADC;
   656  0634  0856               	movf	_vADC,w
   657  0635  0086               	movwf	6	;volatile
   658  0636  2E19               	goto	l1391
   659  0637  120A  118A  280C   	ljmp	start
   660  063A                     __end_of_main:
   661                           
   662                           	psect	text1
   663  0695                     __ptext1:	
   664 ;; *************** function _interr *****************
   665 ;; Defined at:
   666 ;;		line 67 in file "ESCLAVO_1.c"
   667 ;; Parameters:    Size  Location     Type
   668 ;;		None
   669 ;; Auto vars:     Size  Location     Type
   670 ;;		None
   671 ;; Return value:  Size  Location     Type
   672 ;;                  1    wreg      void 
   673 ;; Registers used:
   674 ;;		None
   675 ;; Tracked objects:
   676 ;;		On entry : 0/0
   677 ;;		On exit  : 0/0
   678 ;;		Unchanged: 0/0
   679 ;; Data sizes:     COMMON   BANK0   BANK1   BANK3   BANK2
   680 ;;      Params:         0       0       0       0       0
   681 ;;      Locals:         0       0       0       0       0
   682 ;;      Temps:          0       0       0       0       0
   683 ;;      Totals:         0       0       0       0       0
   684 ;;Total ram usage:        0 bytes
   685 ;; Hardware stack levels used:    1
   686 ;; Hardware stack levels required when called:    2
   687 ;; This function calls:
   688 ;;		Nothing
   689 ;; This function is called by:
   690 ;;		_main
   691 ;; This function uses a non-reentrant model
   692 ;;
   693                           
   694                           
   695                           ;psect for function _interr
   696  0695                     _interr:
   697  0695                     l1335:	
   698                           ;incstack = 0
   699                           ; Regs used in _interr: []
   700                           
   701                           
   702                           ;ESCLAVO_1.c: 68:     INTCONbits.GIE = 1;
   703  0695  178B               	bsf	11,7	;volatile
   704                           
   705                           ;ESCLAVO_1.c: 69:     INTCONbits.PEIE = 1;
   706  0696  170B               	bsf	11,6	;volatile
   707  0697                     l78:
   708  0697  0008               	return
   709  0698                     __end_of_interr:
   710                           
   711                           	psect	text2
   712  05AB                     __ptext2:	
   713 ;; *************** function _conversion *****************
   714 ;; Defined at:
   715 ;;		line 75 in file "ESCLAVO_1.c"
   716 ;; Parameters:    Size  Location     Type
   717 ;;  b               1    wreg     unsigned char 
   718 ;; Auto vars:     Size  Location     Type
   719 ;;  b               1   48[BANK0 ] unsigned char 
   720 ;; Return value:  Size  Location     Type
   721 ;;                  4   40[BANK0 ] float 
   722 ;; Registers used:
   723 ;;		wreg, status,2, status,0, btemp+1, pclath, cstack
   724 ;; Tracked objects:
   725 ;;		On entry : 0/0
   726 ;;		On exit  : 0/0
   727 ;;		Unchanged: 0/0
   728 ;; Data sizes:     COMMON   BANK0   BANK1   BANK3   BANK2
   729 ;;      Params:         0       4       0       0       0
   730 ;;      Locals:         0       1       0       0       0
   731 ;;      Temps:          0       4       0       0       0
   732 ;;      Totals:         0       9       0       0       0
   733 ;;Total ram usage:        9 bytes
   734 ;; Hardware stack levels used:    1
   735 ;; Hardware stack levels required when called:    4
   736 ;; This function calls:
   737 ;;		___flmul
   738 ;;		___xxtofl
   739 ;; This function is called by:
   740 ;;		_main
   741 ;; This function uses a non-reentrant model
   742 ;;
   743                           
   744                           
   745                           ;psect for function _conversion
   746  05AB                     _conversion:
   747                           
   748                           ;incstack = 0
   749                           ; Regs used in _conversion: [wreg+status,2+status,0+btemp+1+pclath+cstack]
   750                           ;conversion@b stored from wreg
   751  05AB  1283               	bcf	3,5	;RP0=0, select bank0
   752  05AC  1303               	bcf	3,6	;RP1=0, select bank0
   753  05AD  00D0               	movwf	conversion@b
   754  05AE                     l1337:
   755                           
   756                           ;ESCLAVO_1.c: 76:     return b*0.0196;
   757  05AE  303C               	movlw	60
   758  05AF  00B1               	movwf	___flmul@b+3
   759  05B0  30A0               	movlw	160
   760  05B1  00B0               	movwf	___flmul@b+2
   761  05B2  3090               	movlw	144
   762  05B3  00AF               	movwf	___flmul@b+1
   763  05B4  302E               	movlw	46
   764  05B5  00AE               	movwf	___flmul@b
   765  05B6  0850               	movf	conversion@b,w
   766  05B7  00CC               	movwf	??_conversion
   767  05B8  01CD               	clrf	??_conversion+1
   768  05B9  01CE               	clrf	??_conversion+2
   769  05BA  01CF               	clrf	??_conversion+3
   770  05BB  084F               	movf	??_conversion+3,w
   771  05BC  00A3               	movwf	___xxtofl@val+3
   772  05BD  084E               	movf	??_conversion+2,w
   773  05BE  00A2               	movwf	___xxtofl@val+2
   774  05BF  084D               	movf	??_conversion+1,w
   775  05C0  00A1               	movwf	___xxtofl@val+1
   776  05C1  084C               	movf	??_conversion,w
   777  05C2  00A0               	movwf	___xxtofl@val
   778  05C3  3001               	movlw	1
   779  05C4  120A  118A  2475  120A  118A  	fcall	___xxtofl
   780  05C9  1283               	bcf	3,5	;RP0=0, select bank0
   781  05CA  1303               	bcf	3,6	;RP1=0, select bank0
   782  05CB  0823               	movf	?___xxtofl+3,w
   783  05CC  00B5               	movwf	___flmul@a+3
   784  05CD  0822               	movf	?___xxtofl+2,w
   785  05CE  00B4               	movwf	___flmul@a+2
   786  05CF  0821               	movf	?___xxtofl+1,w
   787  05D0  00B3               	movwf	___flmul@a+1
   788  05D1  0820               	movf	?___xxtofl,w
   789  05D2  00B2               	movwf	___flmul@a
   790  05D3  120A  118A  2013  120A  118A  	fcall	___flmul
   791  05D8  1283               	bcf	3,5	;RP0=0, select bank0
   792  05D9  1303               	bcf	3,6	;RP1=0, select bank0
   793  05DA  0831               	movf	?___flmul+3,w
   794  05DB  00CB               	movwf	?_conversion+3
   795  05DC  0830               	movf	?___flmul+2,w
   796  05DD  00CA               	movwf	?_conversion+2
   797  05DE  082F               	movf	?___flmul+1,w
   798  05DF  00C9               	movwf	?_conversion+1
   799  05E0  082E               	movf	?___flmul,w
   800  05E1  00C8               	movwf	?_conversion
   801  05E2                     l81:
   802  05E2  0008               	return
   803  05E3                     __end_of_conversion:
   804                           
   805                           	psect	text3
   806  0475                     __ptext3:	
   807 ;; *************** function ___xxtofl *****************
   808 ;; Defined at:
   809 ;;		line 10 in file "C:\Program Files\Microchip\xc8\v2.31\pic\sources\c90\common\xxtofl.c"
   810 ;; Parameters:    Size  Location     Type
   811 ;;  sign            1    wreg     unsigned char 
   812 ;;  val             4    0[BANK0 ] long 
   813 ;; Auto vars:     Size  Location     Type
   814 ;;  sign            1    8[BANK0 ] unsigned char 
   815 ;;  arg             4   10[BANK0 ] unsigned long 
   816 ;;  exp             1    9[BANK0 ] unsigned char 
   817 ;; Return value:  Size  Location     Type
   818 ;;                  4    0[BANK0 ] unsigned char 
   819 ;; Registers used:
   820 ;;		wreg, status,2, status,0
   821 ;; Tracked objects:
   822 ;;		On entry : 0/0
   823 ;;		On exit  : 0/0
   824 ;;		Unchanged: 0/0
   825 ;; Data sizes:     COMMON   BANK0   BANK1   BANK3   BANK2
   826 ;;      Params:         0       4       0       0       0
   827 ;;      Locals:         0       6       0       0       0
   828 ;;      Temps:          0       4       0       0       0
   829 ;;      Totals:         0      14       0       0       0
   830 ;;Total ram usage:       14 bytes
   831 ;; Hardware stack levels used:    1
   832 ;; Hardware stack levels required when called:    2
   833 ;; This function calls:
   834 ;;		Nothing
   835 ;; This function is called by:
   836 ;;		_conversion
   837 ;; This function uses a non-reentrant model
   838 ;;
   839                           
   840                           
   841                           ;psect for function ___xxtofl
   842  0475                     ___xxtofl:
   843                           
   844                           ;incstack = 0
   845                           ; Regs used in ___xxtofl: [wreg+status,2+status,0]
   846                           ;___xxtofl@sign stored from wreg
   847  0475  1283               	bcf	3,5	;RP0=0, select bank0
   848  0476  1303               	bcf	3,6	;RP1=0, select bank0
   849  0477  00A8               	movwf	___xxtofl@sign
   850  0478                     l1227:
   851  0478  0828               	movf	___xxtofl@sign,w
   852  0479  1903               	btfsc	3,2
   853  047A  2C7C               	goto	u1081
   854  047B  2C7D               	goto	u1080
   855  047C                     u1081:
   856  047C  2C91               	goto	l1233
   857  047D                     u1080:
   858  047D                     l1229:
   859  047D  1FA3               	btfss	___xxtofl@val+3,7
   860  047E  2C80               	goto	u1091
   861  047F  2C81               	goto	u1090
   862  0480                     u1091:
   863  0480  2C91               	goto	l1233
   864  0481                     u1090:
   865  0481                     l1231:
   866  0481  0920               	comf	___xxtofl@val,w
   867  0482  00AA               	movwf	___xxtofl@arg
   868  0483  0921               	comf	___xxtofl@val+1,w
   869  0484  00AB               	movwf	___xxtofl@arg+1
   870  0485  0922               	comf	___xxtofl@val+2,w
   871  0486  00AC               	movwf	___xxtofl@arg+2
   872  0487  0923               	comf	___xxtofl@val+3,w
   873  0488  00AD               	movwf	___xxtofl@arg+3
   874  0489  0AAA               	incf	___xxtofl@arg,f
   875  048A  1903               	skipnz
   876  048B  0AAB               	incf	___xxtofl@arg+1,f
   877  048C  1903               	skipnz
   878  048D  0AAC               	incf	___xxtofl@arg+2,f
   879  048E  1903               	skipnz
   880  048F  0AAD               	incf	___xxtofl@arg+3,f
   881  0490  2C99               	goto	l630
   882  0491                     l1233:
   883  0491  0823               	movf	___xxtofl@val+3,w
   884  0492  00AD               	movwf	___xxtofl@arg+3
   885  0493  0822               	movf	___xxtofl@val+2,w
   886  0494  00AC               	movwf	___xxtofl@arg+2
   887  0495  0821               	movf	___xxtofl@val+1,w
   888  0496  00AB               	movwf	___xxtofl@arg+1
   889  0497  0820               	movf	___xxtofl@val,w
   890  0498  00AA               	movwf	___xxtofl@arg
   891  0499                     l630:
   892  0499  0823               	movf	___xxtofl@val+3,w
   893  049A  0422               	iorwf	___xxtofl@val+2,w
   894  049B  0421               	iorwf	___xxtofl@val+1,w
   895  049C  0420               	iorwf	___xxtofl@val,w
   896  049D  1D03               	skipz
   897  049E  2CA0               	goto	u1101
   898  049F  2CA1               	goto	u1100
   899  04A0                     u1101:
   900  04A0  2CAA               	goto	l1239
   901  04A1                     u1100:
   902  04A1                     l1235:
   903  04A1  3000               	movlw	0
   904  04A2  00A3               	movwf	?___xxtofl+3
   905  04A3  3000               	movlw	0
   906  04A4  00A2               	movwf	?___xxtofl+2
   907  04A5  3000               	movlw	0
   908  04A6  00A1               	movwf	?___xxtofl+1
   909  04A7  3000               	movlw	0
   910  04A8  00A0               	movwf	?___xxtofl
   911  04A9  2D30               	goto	l632
   912  04AA                     l1239:
   913  04AA  3096               	movlw	150
   914  04AB  00A4               	movwf	??___xxtofl
   915  04AC  0824               	movf	??___xxtofl,w
   916  04AD  00A9               	movwf	___xxtofl@exp
   917  04AE  2CBC               	goto	l1243
   918  04AF                     l1241:
   919  04AF  3001               	movlw	1
   920  04B0  00A4               	movwf	??___xxtofl
   921  04B1  0824               	movf	??___xxtofl,w
   922  04B2  07A9               	addwf	___xxtofl@exp,f
   923  04B3  3001               	movlw	1
   924  04B4                     u1115:
   925  04B4  1003               	clrc
   926  04B5  0CAD               	rrf	___xxtofl@arg+3,f
   927  04B6  0CAC               	rrf	___xxtofl@arg+2,f
   928  04B7  0CAB               	rrf	___xxtofl@arg+1,f
   929  04B8  0CAA               	rrf	___xxtofl@arg,f
   930  04B9  3EFF               	addlw	-1
   931  04BA  1D03               	skipz
   932  04BB  2CB4               	goto	u1115
   933  04BC                     l1243:
   934  04BC  30FE               	movlw	254
   935  04BD  052D               	andwf	___xxtofl@arg+3,w
   936  04BE  1D03               	btfss	3,2
   937  04BF  2CC1               	goto	u1121
   938  04C0  2CC2               	goto	u1120
   939  04C1                     u1121:
   940  04C1  2CAF               	goto	l1241
   941  04C2                     u1120:
   942  04C2  2CDE               	goto	l636
   943  04C3                     l1245:
   944  04C3  3001               	movlw	1
   945  04C4  00A4               	movwf	??___xxtofl
   946  04C5  0824               	movf	??___xxtofl,w
   947  04C6  07A9               	addwf	___xxtofl@exp,f
   948  04C7                     l1247:
   949  04C7  3001               	movlw	1
   950  04C8  07AA               	addwf	___xxtofl@arg,f
   951  04C9  3000               	movlw	0
   952  04CA  1803               	skipnc
   953  04CB  3001               	movlw	1
   954  04CC  07AB               	addwf	___xxtofl@arg+1,f
   955  04CD  3000               	movlw	0
   956  04CE  1803               	skipnc
   957  04CF  3001               	movlw	1
   958  04D0  07AC               	addwf	___xxtofl@arg+2,f
   959  04D1  3000               	movlw	0
   960  04D2  1803               	skipnc
   961  04D3  3001               	movlw	1
   962  04D4  07AD               	addwf	___xxtofl@arg+3,f
   963  04D5                     l1249:
   964  04D5  3001               	movlw	1
   965  04D6                     u1135:
   966  04D6  1003               	clrc
   967  04D7  0CAD               	rrf	___xxtofl@arg+3,f
   968  04D8  0CAC               	rrf	___xxtofl@arg+2,f
   969  04D9  0CAB               	rrf	___xxtofl@arg+1,f
   970  04DA  0CAA               	rrf	___xxtofl@arg,f
   971  04DB  3EFF               	addlw	-1
   972  04DC  1D03               	skipz
   973  04DD  2CD6               	goto	u1135
   974  04DE                     l636:
   975  04DE  30FF               	movlw	255
   976  04DF  052D               	andwf	___xxtofl@arg+3,w
   977  04E0  1D03               	btfss	3,2
   978  04E1  2CE3               	goto	u1141
   979  04E2  2CE4               	goto	u1140
   980  04E3                     u1141:
   981  04E3  2CC3               	goto	l1245
   982  04E4                     u1140:
   983  04E4  2CF0               	goto	l1253
   984  04E5                     l1251:
   985  04E5  3001               	movlw	1
   986  04E6  02A9               	subwf	___xxtofl@exp,f
   987  04E7  3001               	movlw	1
   988  04E8  00A4               	movwf	??___xxtofl
   989  04E9                     u1155:
   990  04E9  1003               	clrc
   991  04EA  0DAA               	rlf	___xxtofl@arg,f
   992  04EB  0DAB               	rlf	___xxtofl@arg+1,f
   993  04EC  0DAC               	rlf	___xxtofl@arg+2,f
   994  04ED  0DAD               	rlf	___xxtofl@arg+3,f
   995  04EE  0BA4               	decfsz	??___xxtofl,f
   996  04EF  2CE9               	goto	u1155
   997  04F0                     l1253:
   998  04F0  1BAC               	btfsc	___xxtofl@arg+2,7
   999  04F1  2CF3               	goto	u1161
  1000  04F2  2CF4               	goto	u1160
  1001  04F3                     u1161:
  1002  04F3  2CFA               	goto	l643
  1003  04F4                     u1160:
  1004  04F4                     l1255:
  1005  04F4  3002               	movlw	2
  1006  04F5  0229               	subwf	___xxtofl@exp,w
  1007  04F6  1803               	skipnc
  1008  04F7  2CF9               	goto	u1171
  1009  04F8  2CFA               	goto	u1170
  1010  04F9                     u1171:
  1011  04F9  2CE5               	goto	l1251
  1012  04FA                     u1170:
  1013  04FA                     l643:
  1014  04FA  1829               	btfsc	___xxtofl@exp,0
  1015  04FB  2CFD               	goto	u1181
  1016  04FC  2CFE               	goto	u1180
  1017  04FD                     u1181:
  1018  04FD  2D06               	goto	l644
  1019  04FE                     u1180:
  1020  04FE                     l1257:
  1021  04FE  30FF               	movlw	255
  1022  04FF  05AA               	andwf	___xxtofl@arg,f
  1023  0500  30FF               	movlw	255
  1024  0501  05AB               	andwf	___xxtofl@arg+1,f
  1025  0502  307F               	movlw	127
  1026  0503  05AC               	andwf	___xxtofl@arg+2,f
  1027  0504  30FF               	movlw	255
  1028  0505  05AD               	andwf	___xxtofl@arg+3,f
  1029  0506                     l644:
  1030  0506  1003               	clrc
  1031  0507  0CA9               	rrf	___xxtofl@exp,f
  1032  0508                     l1259:
  1033  0508  0829               	movf	___xxtofl@exp,w
  1034  0509  00A4               	movwf	??___xxtofl
  1035  050A  01A5               	clrf	??___xxtofl+1
  1036  050B  01A6               	clrf	??___xxtofl+2
  1037  050C  01A7               	clrf	??___xxtofl+3
  1038  050D  3018               	movlw	24
  1039  050E                     u1195:
  1040  050E  1003               	clrc
  1041  050F  0DA4               	rlf	??___xxtofl,f
  1042  0510  0DA5               	rlf	??___xxtofl+1,f
  1043  0511  0DA6               	rlf	??___xxtofl+2,f
  1044  0512  0DA7               	rlf	??___xxtofl+3,f
  1045  0513                     u1190:
  1046  0513  3EFF               	addlw	-1
  1047  0514  1D03               	skipz
  1048  0515  2D0E               	goto	u1195
  1049  0516  0824               	movf	??___xxtofl,w
  1050  0517  04AA               	iorwf	___xxtofl@arg,f
  1051  0518  0825               	movf	??___xxtofl+1,w
  1052  0519  04AB               	iorwf	___xxtofl@arg+1,f
  1053  051A  0826               	movf	??___xxtofl+2,w
  1054  051B  04AC               	iorwf	___xxtofl@arg+2,f
  1055  051C  0827               	movf	??___xxtofl+3,w
  1056  051D  04AD               	iorwf	___xxtofl@arg+3,f
  1057  051E                     l1261:
  1058  051E  0828               	movf	___xxtofl@sign,w
  1059  051F  1903               	btfsc	3,2
  1060  0520  2D22               	goto	u1201
  1061  0521  2D23               	goto	u1200
  1062  0522                     u1201:
  1063  0522  2D28               	goto	l1267
  1064  0523                     u1200:
  1065  0523                     l1263:
  1066  0523  1FA3               	btfss	___xxtofl@val+3,7
  1067  0524  2D26               	goto	u1211
  1068  0525  2D27               	goto	u1210
  1069  0526                     u1211:
  1070  0526  2D28               	goto	l1267
  1071  0527                     u1210:
  1072  0527                     l1265:
  1073  0527  17AD               	bsf	___xxtofl@arg+3,7
  1074  0528                     l1267:
  1075  0528  082D               	movf	___xxtofl@arg+3,w
  1076  0529  00A3               	movwf	?___xxtofl+3
  1077  052A  082C               	movf	___xxtofl@arg+2,w
  1078  052B  00A2               	movwf	?___xxtofl+2
  1079  052C  082B               	movf	___xxtofl@arg+1,w
  1080  052D  00A1               	movwf	?___xxtofl+1
  1081  052E  082A               	movf	___xxtofl@arg,w
  1082  052F  00A0               	movwf	?___xxtofl
  1083  0530                     l632:
  1084  0530  0008               	return
  1085  0531                     __end_of___xxtofl:
  1086                           
  1087                           	psect	text4
  1088  0013                     __ptext4:	
  1089 ;; *************** function ___flmul *****************
  1090 ;; Defined at:
  1091 ;;		line 8 in file "C:\Program Files\Microchip\xc8\v2.31\pic\sources\c90\common\sprcmul.c"
  1092 ;; Parameters:    Size  Location     Type
  1093 ;;  b               4   14[BANK0 ] unsigned char 
  1094 ;;  a               4   18[BANK0 ] unsigned char 
  1095 ;; Auto vars:     Size  Location     Type
  1096 ;;  prod            4   34[BANK0 ] struct .
  1097 ;;  grs             4   28[BANK0 ] unsigned long 
  1098 ;;  temp            2   38[BANK0 ] struct .
  1099 ;;  bexp            1   33[BANK0 ] unsigned char 
  1100 ;;  aexp            1   32[BANK0 ] unsigned char 
  1101 ;;  sign            1   27[BANK0 ] unsigned char 
  1102 ;; Return value:  Size  Location     Type
  1103 ;;                  4   14[BANK0 ] unsigned char 
  1104 ;; Registers used:
  1105 ;;		wreg, status,2, status,0, btemp+1, pclath, cstack
  1106 ;; Tracked objects:
  1107 ;;		On entry : 0/0
  1108 ;;		On exit  : 0/0
  1109 ;;		Unchanged: 0/0
  1110 ;; Data sizes:     COMMON   BANK0   BANK1   BANK3   BANK2
  1111 ;;      Params:         0       8       0       0       0
  1112 ;;      Locals:         0      13       0       0       0
  1113 ;;      Temps:          0       5       0       0       0
  1114 ;;      Totals:         0      26       0       0       0
  1115 ;;Total ram usage:       26 bytes
  1116 ;; Hardware stack levels used:    1
  1117 ;; Hardware stack levels required when called:    3
  1118 ;; This function calls:
  1119 ;;		__Umul8_16
  1120 ;; This function is called by:
  1121 ;;		_conversion
  1122 ;; This function uses a non-reentrant model
  1123 ;;
  1124                           
  1125                           
  1126                           ;psect for function ___flmul
  1127  0013                     ___flmul:
  1128  0013                     l1087:	
  1129                           ;incstack = 0
  1130                           ; Regs used in ___flmul: [wreg+status,2+status,0+btemp+1+pclath+cstack]
  1131                           
  1132  0013  1283               	bcf	3,5	;RP0=0, select bank0
  1133  0014  1303               	bcf	3,6	;RP1=0, select bank0
  1134  0015  0831               	movf	___flmul@b+3,w
  1135  0016  3980               	andlw	128
  1136  0017  00B6               	movwf	??___flmul
  1137  0018  0836               	movf	??___flmul,w
  1138  0019  00BB               	movwf	___flmul@sign
  1139  001A                     l1089:
  1140  001A  0831               	movf	___flmul@b+3,w
  1141  001B  00B6               	movwf	??___flmul
  1142  001C  0736               	addwf	??___flmul,w
  1143  001D  00B7               	movwf	??___flmul+1
  1144  001E  0837               	movf	??___flmul+1,w
  1145  001F  00C1               	movwf	___flmul@bexp
  1146  0020                     l1091:
  1147  0020  1FB0               	btfss	___flmul@b+2,7
  1148  0021  2823               	goto	u711
  1149  0022  2824               	goto	u710
  1150  0023                     u711:
  1151  0023  2825               	goto	l1095
  1152  0024                     u710:
  1153  0024                     l1093:
  1154  0024  1441               	bsf	___flmul@bexp,0
  1155  0025                     l1095:
  1156  0025  0841               	movf	___flmul@bexp,w
  1157  0026  1903               	btfsc	3,2
  1158  0027  2829               	goto	u721
  1159  0028  282A               	goto	u720
  1160  0029                     u721:
  1161  0029  2839               	goto	l1103
  1162  002A                     u720:
  1163  002A                     l1097:
  1164  002A  0A41               	incf	___flmul@bexp,w
  1165  002B  1D03               	btfss	3,2
  1166  002C  282E               	goto	u731
  1167  002D  282F               	goto	u730
  1168  002E                     u731:
  1169  002E  2837               	goto	l1101
  1170  002F                     u730:
  1171  002F                     l1099:
  1172  002F  3000               	movlw	0
  1173  0030  00B1               	movwf	___flmul@b+3
  1174  0031  3000               	movlw	0
  1175  0032  00B0               	movwf	___flmul@b+2
  1176  0033  3000               	movlw	0
  1177  0034  00AF               	movwf	___flmul@b+1
  1178  0035  3000               	movlw	0
  1179  0036  00AE               	movwf	___flmul@b
  1180  0037                     l1101:
  1181  0037  17B0               	bsf	___flmul@b+2,7
  1182  0038  2841               	goto	l1105
  1183  0039                     l1103:
  1184  0039  3000               	movlw	0
  1185  003A  00B1               	movwf	___flmul@b+3
  1186  003B  3000               	movlw	0
  1187  003C  00B0               	movwf	___flmul@b+2
  1188  003D  3000               	movlw	0
  1189  003E  00AF               	movwf	___flmul@b+1
  1190  003F  3000               	movlw	0
  1191  0040  00AE               	movwf	___flmul@b
  1192  0041                     l1105:
  1193  0041  0835               	movf	___flmul@a+3,w
  1194  0042  3980               	andlw	128
  1195  0043  00B6               	movwf	??___flmul
  1196  0044  0836               	movf	??___flmul,w
  1197  0045  06BB               	xorwf	___flmul@sign,f
  1198  0046                     l1107:
  1199  0046  0835               	movf	___flmul@a+3,w
  1200  0047  00B6               	movwf	??___flmul
  1201  0048  0736               	addwf	??___flmul,w
  1202  0049  00B7               	movwf	??___flmul+1
  1203  004A  0837               	movf	??___flmul+1,w
  1204  004B  00C0               	movwf	___flmul@aexp
  1205  004C                     l1109:
  1206  004C  1FB4               	btfss	___flmul@a+2,7
  1207  004D  284F               	goto	u741
  1208  004E  2850               	goto	u740
  1209  004F                     u741:
  1210  004F  2851               	goto	l1113
  1211  0050                     u740:
  1212  0050                     l1111:
  1213  0050  1440               	bsf	___flmul@aexp,0
  1214  0051                     l1113:
  1215  0051  0840               	movf	___flmul@aexp,w
  1216  0052  1903               	btfsc	3,2
  1217  0053  2855               	goto	u751
  1218  0054  2856               	goto	u750
  1219  0055                     u751:
  1220  0055  2865               	goto	l1121
  1221  0056                     u750:
  1222  0056                     l1115:
  1223  0056  0A40               	incf	___flmul@aexp,w
  1224  0057  1D03               	btfss	3,2
  1225  0058  285A               	goto	u761
  1226  0059  285B               	goto	u760
  1227  005A                     u761:
  1228  005A  2863               	goto	l1119
  1229  005B                     u760:
  1230  005B                     l1117:
  1231  005B  3000               	movlw	0
  1232  005C  00B5               	movwf	___flmul@a+3
  1233  005D  3000               	movlw	0
  1234  005E  00B4               	movwf	___flmul@a+2
  1235  005F  3000               	movlw	0
  1236  0060  00B3               	movwf	___flmul@a+1
  1237  0061  3000               	movlw	0
  1238  0062  00B2               	movwf	___flmul@a
  1239  0063                     l1119:
  1240  0063  17B4               	bsf	___flmul@a+2,7
  1241  0064  286D               	goto	l1123
  1242  0065                     l1121:
  1243  0065  3000               	movlw	0
  1244  0066  00B5               	movwf	___flmul@a+3
  1245  0067  3000               	movlw	0
  1246  0068  00B4               	movwf	___flmul@a+2
  1247  0069  3000               	movlw	0
  1248  006A  00B3               	movwf	___flmul@a+1
  1249  006B  3000               	movlw	0
  1250  006C  00B2               	movwf	___flmul@a
  1251  006D                     l1123:
  1252  006D  0840               	movf	___flmul@aexp,w
  1253  006E  1903               	btfsc	3,2
  1254  006F  2871               	goto	u771
  1255  0070  2872               	goto	u770
  1256  0071                     u771:
  1257  0071  2877               	goto	l1127
  1258  0072                     u770:
  1259  0072                     l1125:
  1260  0072  0841               	movf	___flmul@bexp,w
  1261  0073  1D03               	btfss	3,2
  1262  0074  2876               	goto	u781
  1263  0075  2877               	goto	u780
  1264  0076                     u781:
  1265  0076  2880               	goto	l1131
  1266  0077                     u780:
  1267  0077                     l1127:
  1268  0077  3000               	movlw	0
  1269  0078  00B1               	movwf	?___flmul+3
  1270  0079  3000               	movlw	0
  1271  007A  00B0               	movwf	?___flmul+2
  1272  007B  3000               	movlw	0
  1273  007C  00AF               	movwf	?___flmul+1
  1274  007D  3000               	movlw	0
  1275  007E  00AE               	movwf	?___flmul
  1276  007F  2B73               	goto	l586
  1277  0080                     l1131:
  1278  0080  082E               	movf	___flmul@b,w
  1279  0081  00B6               	movwf	??___flmul
  1280  0082  0836               	movf	??___flmul,w
  1281  0083  00A0               	movwf	__Umul8_16@multiplicand
  1282  0084  0834               	movf	___flmul@a+2,w
  1283  0085  120A  118A  263A  120A  118A  	fcall	__Umul8_16
  1284  008A  1283               	bcf	3,5	;RP0=0, select bank0
  1285  008B  1303               	bcf	3,6	;RP1=0, select bank0
  1286  008C  0821               	movf	?__Umul8_16+1,w
  1287  008D  00C7               	movwf	___flmul@temp+1
  1288  008E  0820               	movf	?__Umul8_16,w
  1289  008F  00C6               	movwf	___flmul@temp
  1290  0090                     l1133:
  1291  0090  0846               	movf	___flmul@temp,w
  1292  0091  00B6               	movwf	??___flmul
  1293  0092  01B7               	clrf	??___flmul+1
  1294  0093  01B8               	clrf	??___flmul+2
  1295  0094  01B9               	clrf	??___flmul+3
  1296  0095  0839               	movf	??___flmul+3,w
  1297  0096  00BF               	movwf	___flmul@grs+3
  1298  0097  0838               	movf	??___flmul+2,w
  1299  0098  00BE               	movwf	___flmul@grs+2
  1300  0099  0837               	movf	??___flmul+1,w
  1301  009A  00BD               	movwf	___flmul@grs+1
  1302  009B  0836               	movf	??___flmul,w
  1303  009C  00BC               	movwf	___flmul@grs
  1304  009D                     l1135:
  1305  009D  0847               	movf	___flmul@temp+1,w
  1306  009E  00B6               	movwf	??___flmul
  1307  009F  01B7               	clrf	??___flmul+1
  1308  00A0  01B8               	clrf	??___flmul+2
  1309  00A1  01B9               	clrf	??___flmul+3
  1310  00A2  0839               	movf	??___flmul+3,w
  1311  00A3  00C5               	movwf	___flmul@prod+3
  1312  00A4  0838               	movf	??___flmul+2,w
  1313  00A5  00C4               	movwf	___flmul@prod+2
  1314  00A6  0837               	movf	??___flmul+1,w
  1315  00A7  00C3               	movwf	___flmul@prod+1
  1316  00A8  0836               	movf	??___flmul,w
  1317  00A9  00C2               	movwf	___flmul@prod
  1318  00AA  082F               	movf	___flmul@b+1,w
  1319  00AB  00B6               	movwf	??___flmul
  1320  00AC  0836               	movf	??___flmul,w
  1321  00AD  00A0               	movwf	__Umul8_16@multiplicand
  1322  00AE  0833               	movf	___flmul@a+1,w
  1323  00AF  120A  118A  263A  120A  118A  	fcall	__Umul8_16
  1324  00B4  1283               	bcf	3,5	;RP0=0, select bank0
  1325  00B5  1303               	bcf	3,6	;RP1=0, select bank0
  1326  00B6  0821               	movf	?__Umul8_16+1,w
  1327  00B7  00C7               	movwf	___flmul@temp+1
  1328  00B8  0820               	movf	?__Umul8_16,w
  1329  00B9  00C6               	movwf	___flmul@temp
  1330  00BA                     l1137:
  1331  00BA  0846               	movf	___flmul@temp,w
  1332  00BB  00B6               	movwf	??___flmul
  1333  00BC  01B7               	clrf	??___flmul+1
  1334  00BD  01B8               	clrf	??___flmul+2
  1335  00BE  01B9               	clrf	??___flmul+3
  1336  00BF  0836               	movf	??___flmul,w
  1337  00C0  07BC               	addwf	___flmul@grs,f
  1338  00C1  0837               	movf	??___flmul+1,w
  1339  00C2  1103               	clrz
  1340  00C3  1803               	skipnc
  1341  00C4  3E01               	addlw	1
  1342  00C5  1903               	skipnz
  1343  00C6  28C8               	goto	u791
  1344  00C7  07BD               	addwf	___flmul@grs+1,f
  1345  00C8                     u791:
  1346  00C8  0838               	movf	??___flmul+2,w
  1347  00C9  1103               	clrz
  1348  00CA  1803               	skipnc
  1349  00CB  3E01               	addlw	1
  1350  00CC  1903               	skipnz
  1351  00CD  28CF               	goto	u792
  1352  00CE  07BE               	addwf	___flmul@grs+2,f
  1353  00CF                     u792:
  1354  00CF  0839               	movf	??___flmul+3,w
  1355  00D0  1103               	clrz
  1356  00D1  1803               	skipnc
  1357  00D2  3E01               	addlw	1
  1358  00D3  1903               	skipnz
  1359  00D4  28D6               	goto	u793
  1360  00D5  07BF               	addwf	___flmul@grs+3,f
  1361  00D6                     u793:
  1362  00D6                     l1139:
  1363  00D6  0847               	movf	___flmul@temp+1,w
  1364  00D7  00B6               	movwf	??___flmul
  1365  00D8  01B7               	clrf	??___flmul+1
  1366  00D9  01B8               	clrf	??___flmul+2
  1367  00DA  01B9               	clrf	??___flmul+3
  1368  00DB  0836               	movf	??___flmul,w
  1369  00DC  07C2               	addwf	___flmul@prod,f
  1370  00DD  0837               	movf	??___flmul+1,w
  1371  00DE  1103               	clrz
  1372  00DF  1803               	skipnc
  1373  00E0  3E01               	addlw	1
  1374  00E1  1903               	skipnz
  1375  00E2  28E4               	goto	u801
  1376  00E3  07C3               	addwf	___flmul@prod+1,f
  1377  00E4                     u801:
  1378  00E4  0838               	movf	??___flmul+2,w
  1379  00E5  1103               	clrz
  1380  00E6  1803               	skipnc
  1381  00E7  3E01               	addlw	1
  1382  00E8  1903               	skipnz
  1383  00E9  28EB               	goto	u802
  1384  00EA  07C4               	addwf	___flmul@prod+2,f
  1385  00EB                     u802:
  1386  00EB  0839               	movf	??___flmul+3,w
  1387  00EC  1103               	clrz
  1388  00ED  1803               	skipnc
  1389  00EE  3E01               	addlw	1
  1390  00EF  1903               	skipnz
  1391  00F0  28F2               	goto	u803
  1392  00F1  07C5               	addwf	___flmul@prod+3,f
  1393  00F2                     u803:
  1394  00F2  0830               	movf	___flmul@b+2,w
  1395  00F3  00B6               	movwf	??___flmul
  1396  00F4  0836               	movf	??___flmul,w
  1397  00F5  00A0               	movwf	__Umul8_16@multiplicand
  1398  00F6  0832               	movf	___flmul@a,w
  1399  00F7  120A  118A  263A  120A  118A  	fcall	__Umul8_16
  1400  00FC  1283               	bcf	3,5	;RP0=0, select bank0
  1401  00FD  1303               	bcf	3,6	;RP1=0, select bank0
  1402  00FE  0821               	movf	?__Umul8_16+1,w
  1403  00FF  00C7               	movwf	___flmul@temp+1
  1404  0100  0820               	movf	?__Umul8_16,w
  1405  0101  00C6               	movwf	___flmul@temp
  1406  0102                     l1141:
  1407  0102  0846               	movf	___flmul@temp,w
  1408  0103  00B6               	movwf	??___flmul
  1409  0104  01B7               	clrf	??___flmul+1
  1410  0105  01B8               	clrf	??___flmul+2
  1411  0106  01B9               	clrf	??___flmul+3
  1412  0107  0836               	movf	??___flmul,w
  1413  0108  07BC               	addwf	___flmul@grs,f
  1414  0109  0837               	movf	??___flmul+1,w
  1415  010A  1103               	clrz
  1416  010B  1803               	skipnc
  1417  010C  3E01               	addlw	1
  1418  010D  1903               	skipnz
  1419  010E  2910               	goto	u811
  1420  010F  07BD               	addwf	___flmul@grs+1,f
  1421  0110                     u811:
  1422  0110  0838               	movf	??___flmul+2,w
  1423  0111  1103               	clrz
  1424  0112  1803               	skipnc
  1425  0113  3E01               	addlw	1
  1426  0114  1903               	skipnz
  1427  0115  2917               	goto	u812
  1428  0116  07BE               	addwf	___flmul@grs+2,f
  1429  0117                     u812:
  1430  0117  0839               	movf	??___flmul+3,w
  1431  0118  1103               	clrz
  1432  0119  1803               	skipnc
  1433  011A  3E01               	addlw	1
  1434  011B  1903               	skipnz
  1435  011C  291E               	goto	u813
  1436  011D  07BF               	addwf	___flmul@grs+3,f
  1437  011E                     u813:
  1438  011E                     l1143:
  1439  011E  0847               	movf	___flmul@temp+1,w
  1440  011F  00B6               	movwf	??___flmul
  1441  0120  01B7               	clrf	??___flmul+1
  1442  0121  01B8               	clrf	??___flmul+2
  1443  0122  01B9               	clrf	??___flmul+3
  1444  0123  0836               	movf	??___flmul,w
  1445  0124  07C2               	addwf	___flmul@prod,f
  1446  0125  0837               	movf	??___flmul+1,w
  1447  0126  1103               	clrz
  1448  0127  1803               	skipnc
  1449  0128  3E01               	addlw	1
  1450  0129  1903               	skipnz
  1451  012A  292C               	goto	u821
  1452  012B  07C3               	addwf	___flmul@prod+1,f
  1453  012C                     u821:
  1454  012C  0838               	movf	??___flmul+2,w
  1455  012D  1103               	clrz
  1456  012E  1803               	skipnc
  1457  012F  3E01               	addlw	1
  1458  0130  1903               	skipnz
  1459  0131  2933               	goto	u822
  1460  0132  07C4               	addwf	___flmul@prod+2,f
  1461  0133                     u822:
  1462  0133  0839               	movf	??___flmul+3,w
  1463  0134  1103               	clrz
  1464  0135  1803               	skipnc
  1465  0136  3E01               	addlw	1
  1466  0137  1903               	skipnz
  1467  0138  293A               	goto	u823
  1468  0139  07C5               	addwf	___flmul@prod+3,f
  1469  013A                     u823:
  1470  013A                     l1145:
  1471  013A  3008               	movlw	8
  1472  013B  00B6               	movwf	??___flmul
  1473  013C                     u835:
  1474  013C  1003               	clrc
  1475  013D  0DBC               	rlf	___flmul@grs,f
  1476  013E  0DBD               	rlf	___flmul@grs+1,f
  1477  013F  0DBE               	rlf	___flmul@grs+2,f
  1478  0140  0DBF               	rlf	___flmul@grs+3,f
  1479  0141  0BB6               	decfsz	??___flmul,f
  1480  0142  293C               	goto	u835
  1481  0143                     l1147:
  1482  0143  082F               	movf	___flmul@b+1,w
  1483  0144  00B6               	movwf	??___flmul
  1484  0145  0836               	movf	??___flmul,w
  1485  0146  00A0               	movwf	__Umul8_16@multiplicand
  1486  0147  0832               	movf	___flmul@a,w
  1487  0148  120A  118A  263A  120A  118A  	fcall	__Umul8_16
  1488  014D  1283               	bcf	3,5	;RP0=0, select bank0
  1489  014E  1303               	bcf	3,6	;RP1=0, select bank0
  1490  014F  0821               	movf	?__Umul8_16+1,w
  1491  0150  00C7               	movwf	___flmul@temp+1
  1492  0151  0820               	movf	?__Umul8_16,w
  1493  0152  00C6               	movwf	___flmul@temp
  1494  0153                     l1149:
  1495  0153  0846               	movf	___flmul@temp,w
  1496  0154  00B6               	movwf	??___flmul
  1497  0155  0847               	movf	___flmul@temp+1,w
  1498  0156  00B7               	movwf	??___flmul+1
  1499  0157  01B8               	clrf	??___flmul+2
  1500  0158  01B9               	clrf	??___flmul+3
  1501  0159  0836               	movf	??___flmul,w
  1502  015A  07BC               	addwf	___flmul@grs,f
  1503  015B  0837               	movf	??___flmul+1,w
  1504  015C  1103               	clrz
  1505  015D  1803               	skipnc
  1506  015E  3E01               	addlw	1
  1507  015F  1903               	skipnz
  1508  0160  2962               	goto	u841
  1509  0161  07BD               	addwf	___flmul@grs+1,f
  1510  0162                     u841:
  1511  0162  0838               	movf	??___flmul+2,w
  1512  0163  1103               	clrz
  1513  0164  1803               	skipnc
  1514  0165  3E01               	addlw	1
  1515  0166  1903               	skipnz
  1516  0167  2969               	goto	u842
  1517  0168  07BE               	addwf	___flmul@grs+2,f
  1518  0169                     u842:
  1519  0169  0839               	movf	??___flmul+3,w
  1520  016A  1103               	clrz
  1521  016B  1803               	skipnc
  1522  016C  3E01               	addlw	1
  1523  016D  1903               	skipnz
  1524  016E  2970               	goto	u843
  1525  016F  07BF               	addwf	___flmul@grs+3,f
  1526  0170                     u843:
  1527  0170                     l1151:
  1528  0170  082E               	movf	___flmul@b,w
  1529  0171  00B6               	movwf	??___flmul
  1530  0172  0836               	movf	??___flmul,w
  1531  0173  00A0               	movwf	__Umul8_16@multiplicand
  1532  0174  0833               	movf	___flmul@a+1,w
  1533  0175  120A  118A  263A  120A  118A  	fcall	__Umul8_16
  1534  017A  1283               	bcf	3,5	;RP0=0, select bank0
  1535  017B  1303               	bcf	3,6	;RP1=0, select bank0
  1536  017C  0821               	movf	?__Umul8_16+1,w
  1537  017D  00C7               	movwf	___flmul@temp+1
  1538  017E  0820               	movf	?__Umul8_16,w
  1539  017F  00C6               	movwf	___flmul@temp
  1540  0180                     l1153:
  1541  0180  0846               	movf	___flmul@temp,w
  1542  0181  00B6               	movwf	??___flmul
  1543  0182  0847               	movf	___flmul@temp+1,w
  1544  0183  00B7               	movwf	??___flmul+1
  1545  0184  01B8               	clrf	??___flmul+2
  1546  0185  01B9               	clrf	??___flmul+3
  1547  0186  0836               	movf	??___flmul,w
  1548  0187  07BC               	addwf	___flmul@grs,f
  1549  0188  0837               	movf	??___flmul+1,w
  1550  0189  1103               	clrz
  1551  018A  1803               	skipnc
  1552  018B  3E01               	addlw	1
  1553  018C  1903               	skipnz
  1554  018D  298F               	goto	u851
  1555  018E  07BD               	addwf	___flmul@grs+1,f
  1556  018F                     u851:
  1557  018F  0838               	movf	??___flmul+2,w
  1558  0190  1103               	clrz
  1559  0191  1803               	skipnc
  1560  0192  3E01               	addlw	1
  1561  0193  1903               	skipnz
  1562  0194  2996               	goto	u852
  1563  0195  07BE               	addwf	___flmul@grs+2,f
  1564  0196                     u852:
  1565  0196  0839               	movf	??___flmul+3,w
  1566  0197  1103               	clrz
  1567  0198  1803               	skipnc
  1568  0199  3E01               	addlw	1
  1569  019A  1903               	skipnz
  1570  019B  299D               	goto	u853
  1571  019C  07BF               	addwf	___flmul@grs+3,f
  1572  019D                     u853:
  1573  019D                     l1155:
  1574  019D  3008               	movlw	8
  1575  019E  00B6               	movwf	??___flmul
  1576  019F                     u865:
  1577  019F  1003               	clrc
  1578  01A0  0DBC               	rlf	___flmul@grs,f
  1579  01A1  0DBD               	rlf	___flmul@grs+1,f
  1580  01A2  0DBE               	rlf	___flmul@grs+2,f
  1581  01A3  0DBF               	rlf	___flmul@grs+3,f
  1582  01A4  0BB6               	decfsz	??___flmul,f
  1583  01A5  299F               	goto	u865
  1584  01A6  082E               	movf	___flmul@b,w
  1585  01A7  00B6               	movwf	??___flmul
  1586  01A8  0836               	movf	??___flmul,w
  1587  01A9  00A0               	movwf	__Umul8_16@multiplicand
  1588  01AA  0832               	movf	___flmul@a,w
  1589  01AB  120A  118A  263A  120A  118A  	fcall	__Umul8_16
  1590  01B0  1283               	bcf	3,5	;RP0=0, select bank0
  1591  01B1  1303               	bcf	3,6	;RP1=0, select bank0
  1592  01B2  0821               	movf	?__Umul8_16+1,w
  1593  01B3  00C7               	movwf	___flmul@temp+1
  1594  01B4  0820               	movf	?__Umul8_16,w
  1595  01B5  00C6               	movwf	___flmul@temp
  1596  01B6                     l1157:
  1597  01B6  0846               	movf	___flmul@temp,w
  1598  01B7  00B6               	movwf	??___flmul
  1599  01B8  0847               	movf	___flmul@temp+1,w
  1600  01B9  00B7               	movwf	??___flmul+1
  1601  01BA  01B8               	clrf	??___flmul+2
  1602  01BB  01B9               	clrf	??___flmul+3
  1603  01BC  0836               	movf	??___flmul,w
  1604  01BD  07BC               	addwf	___flmul@grs,f
  1605  01BE  0837               	movf	??___flmul+1,w
  1606  01BF  1103               	clrz
  1607  01C0  1803               	skipnc
  1608  01C1  3E01               	addlw	1
  1609  01C2  1903               	skipnz
  1610  01C3  29C5               	goto	u871
  1611  01C4  07BD               	addwf	___flmul@grs+1,f
  1612  01C5                     u871:
  1613  01C5  0838               	movf	??___flmul+2,w
  1614  01C6  1103               	clrz
  1615  01C7  1803               	skipnc
  1616  01C8  3E01               	addlw	1
  1617  01C9  1903               	skipnz
  1618  01CA  29CC               	goto	u872
  1619  01CB  07BE               	addwf	___flmul@grs+2,f
  1620  01CC                     u872:
  1621  01CC  0839               	movf	??___flmul+3,w
  1622  01CD  1103               	clrz
  1623  01CE  1803               	skipnc
  1624  01CF  3E01               	addlw	1
  1625  01D0  1903               	skipnz
  1626  01D1  29D3               	goto	u873
  1627  01D2  07BF               	addwf	___flmul@grs+3,f
  1628  01D3                     u873:
  1629  01D3                     l1159:
  1630  01D3  082F               	movf	___flmul@b+1,w
  1631  01D4  00B6               	movwf	??___flmul
  1632  01D5  0836               	movf	??___flmul,w
  1633  01D6  00A0               	movwf	__Umul8_16@multiplicand
  1634  01D7  0834               	movf	___flmul@a+2,w
  1635  01D8  120A  118A  263A  120A  118A  	fcall	__Umul8_16
  1636  01DD  1283               	bcf	3,5	;RP0=0, select bank0
  1637  01DE  1303               	bcf	3,6	;RP1=0, select bank0
  1638  01DF  0821               	movf	?__Umul8_16+1,w
  1639  01E0  00C7               	movwf	___flmul@temp+1
  1640  01E1  0820               	movf	?__Umul8_16,w
  1641  01E2  00C6               	movwf	___flmul@temp
  1642  01E3  0846               	movf	___flmul@temp,w
  1643  01E4  00B6               	movwf	??___flmul
  1644  01E5  0847               	movf	___flmul@temp+1,w
  1645  01E6  00B7               	movwf	??___flmul+1
  1646  01E7  01B8               	clrf	??___flmul+2
  1647  01E8  01B9               	clrf	??___flmul+3
  1648  01E9  0836               	movf	??___flmul,w
  1649  01EA  07C2               	addwf	___flmul@prod,f
  1650  01EB  0837               	movf	??___flmul+1,w
  1651  01EC  1103               	clrz
  1652  01ED  1803               	skipnc
  1653  01EE  3E01               	addlw	1
  1654  01EF  1903               	skipnz
  1655  01F0  29F2               	goto	u881
  1656  01F1  07C3               	addwf	___flmul@prod+1,f
  1657  01F2                     u881:
  1658  01F2  0838               	movf	??___flmul+2,w
  1659  01F3  1103               	clrz
  1660  01F4  1803               	skipnc
  1661  01F5  3E01               	addlw	1
  1662  01F6  1903               	skipnz
  1663  01F7  29F9               	goto	u882
  1664  01F8  07C4               	addwf	___flmul@prod+2,f
  1665  01F9                     u882:
  1666  01F9  0839               	movf	??___flmul+3,w
  1667  01FA  1103               	clrz
  1668  01FB  1803               	skipnc
  1669  01FC  3E01               	addlw	1
  1670  01FD  1903               	skipnz
  1671  01FE  2A00               	goto	u883
  1672  01FF  07C5               	addwf	___flmul@prod+3,f
  1673  0200                     u883:
  1674  0200                     l1161:
  1675  0200  0830               	movf	___flmul@b+2,w
  1676  0201  00B6               	movwf	??___flmul
  1677  0202  0836               	movf	??___flmul,w
  1678  0203  00A0               	movwf	__Umul8_16@multiplicand
  1679  0204  0833               	movf	___flmul@a+1,w
  1680  0205  120A  118A  263A  120A  118A  	fcall	__Umul8_16
  1681  020A  1283               	bcf	3,5	;RP0=0, select bank0
  1682  020B  1303               	bcf	3,6	;RP1=0, select bank0
  1683  020C  0821               	movf	?__Umul8_16+1,w
  1684  020D  00C7               	movwf	___flmul@temp+1
  1685  020E  0820               	movf	?__Umul8_16,w
  1686  020F  00C6               	movwf	___flmul@temp
  1687  0210                     l1163:
  1688  0210  0846               	movf	___flmul@temp,w
  1689  0211  00B6               	movwf	??___flmul
  1690  0212  0847               	movf	___flmul@temp+1,w
  1691  0213  00B7               	movwf	??___flmul+1
  1692  0214  01B8               	clrf	??___flmul+2
  1693  0215  01B9               	clrf	??___flmul+3
  1694  0216  0836               	movf	??___flmul,w
  1695  0217  07C2               	addwf	___flmul@prod,f
  1696  0218  0837               	movf	??___flmul+1,w
  1697  0219  1103               	clrz
  1698  021A  1803               	skipnc
  1699  021B  3E01               	addlw	1
  1700  021C  1903               	skipnz
  1701  021D  2A1F               	goto	u891
  1702  021E  07C3               	addwf	___flmul@prod+1,f
  1703  021F                     u891:
  1704  021F  0838               	movf	??___flmul+2,w
  1705  0220  1103               	clrz
  1706  0221  1803               	skipnc
  1707  0222  3E01               	addlw	1
  1708  0223  1903               	skipnz
  1709  0224  2A26               	goto	u892
  1710  0225  07C4               	addwf	___flmul@prod+2,f
  1711  0226                     u892:
  1712  0226  0839               	movf	??___flmul+3,w
  1713  0227  1103               	clrz
  1714  0228  1803               	skipnc
  1715  0229  3E01               	addlw	1
  1716  022A  1903               	skipnz
  1717  022B  2A2D               	goto	u893
  1718  022C  07C5               	addwf	___flmul@prod+3,f
  1719  022D                     u893:
  1720  022D  0830               	movf	___flmul@b+2,w
  1721  022E  00B6               	movwf	??___flmul
  1722  022F  0836               	movf	??___flmul,w
  1723  0230  00A0               	movwf	__Umul8_16@multiplicand
  1724  0231  0834               	movf	___flmul@a+2,w
  1725  0232  120A  118A  263A  120A  118A  	fcall	__Umul8_16
  1726  0237  1283               	bcf	3,5	;RP0=0, select bank0
  1727  0238  1303               	bcf	3,6	;RP1=0, select bank0
  1728  0239  0821               	movf	?__Umul8_16+1,w
  1729  023A  00C7               	movwf	___flmul@temp+1
  1730  023B  0820               	movf	?__Umul8_16,w
  1731  023C  00C6               	movwf	___flmul@temp
  1732  023D                     l1165:
  1733  023D  0846               	movf	___flmul@temp,w
  1734  023E  00B6               	movwf	??___flmul
  1735  023F  0847               	movf	___flmul@temp+1,w
  1736  0240  00B7               	movwf	??___flmul+1
  1737  0241  01B8               	clrf	??___flmul+2
  1738  0242  01B9               	clrf	??___flmul+3
  1739  0243  3008               	movlw	8
  1740  0244                     u905:
  1741  0244  1003               	clrc
  1742  0245  0DB6               	rlf	??___flmul,f
  1743  0246  0DB7               	rlf	??___flmul+1,f
  1744  0247  0DB8               	rlf	??___flmul+2,f
  1745  0248  0DB9               	rlf	??___flmul+3,f
  1746  0249                     u900:
  1747  0249  3EFF               	addlw	-1
  1748  024A  1D03               	skipz
  1749  024B  2A44               	goto	u905
  1750  024C  0836               	movf	??___flmul,w
  1751  024D  07C2               	addwf	___flmul@prod,f
  1752  024E  0837               	movf	??___flmul+1,w
  1753  024F  1103               	clrz
  1754  0250  1803               	skipnc
  1755  0251  3E01               	addlw	1
  1756  0252  1903               	skipnz
  1757  0253  2A55               	goto	u911
  1758  0254  07C3               	addwf	___flmul@prod+1,f
  1759  0255                     u911:
  1760  0255  0838               	movf	??___flmul+2,w
  1761  0256  1103               	clrz
  1762  0257  1803               	skipnc
  1763  0258  3E01               	addlw	1
  1764  0259  1903               	skipnz
  1765  025A  2A5C               	goto	u912
  1766  025B  07C4               	addwf	___flmul@prod+2,f
  1767  025C                     u912:
  1768  025C  0839               	movf	??___flmul+3,w
  1769  025D  1103               	clrz
  1770  025E  1803               	skipnc
  1771  025F  3E01               	addlw	1
  1772  0260  1903               	skipnz
  1773  0261  2A63               	goto	u913
  1774  0262  07C5               	addwf	___flmul@prod+3,f
  1775  0263                     u913:
  1776  0263                     l1167:
  1777  0263  083C               	movf	___flmul@grs,w
  1778  0264  00B6               	movwf	??___flmul
  1779  0265  083D               	movf	___flmul@grs+1,w
  1780  0266  00B7               	movwf	??___flmul+1
  1781  0267  083E               	movf	___flmul@grs+2,w
  1782  0268  00B8               	movwf	??___flmul+2
  1783  0269  083F               	movf	___flmul@grs+3,w
  1784  026A  00B9               	movwf	??___flmul+3
  1785  026B  3018               	movlw	24
  1786  026C                     u925:
  1787  026C  1003               	clrc
  1788  026D  0CB9               	rrf	??___flmul+3,f
  1789  026E  0CB8               	rrf	??___flmul+2,f
  1790  026F  0CB7               	rrf	??___flmul+1,f
  1791  0270  0CB6               	rrf	??___flmul,f
  1792  0271                     u920:
  1793  0271  3EFF               	addlw	-1
  1794  0272  1D03               	skipz
  1795  0273  2A6C               	goto	u925
  1796  0274  0836               	movf	??___flmul,w
  1797  0275  07C2               	addwf	___flmul@prod,f
  1798  0276  0837               	movf	??___flmul+1,w
  1799  0277  1103               	clrz
  1800  0278  1803               	skipnc
  1801  0279  3E01               	addlw	1
  1802  027A  1903               	skipnz
  1803  027B  2A7D               	goto	u931
  1804  027C  07C3               	addwf	___flmul@prod+1,f
  1805  027D                     u931:
  1806  027D  0838               	movf	??___flmul+2,w
  1807  027E  1103               	clrz
  1808  027F  1803               	skipnc
  1809  0280  3E01               	addlw	1
  1810  0281  1903               	skipnz
  1811  0282  2A84               	goto	u932
  1812  0283  07C4               	addwf	___flmul@prod+2,f
  1813  0284                     u932:
  1814  0284  0839               	movf	??___flmul+3,w
  1815  0285  1103               	clrz
  1816  0286  1803               	skipnc
  1817  0287  3E01               	addlw	1
  1818  0288  1903               	skipnz
  1819  0289  2A8B               	goto	u933
  1820  028A  07C5               	addwf	___flmul@prod+3,f
  1821  028B                     u933:
  1822  028B                     l1169:
  1823  028B  3008               	movlw	8
  1824  028C  00B6               	movwf	??___flmul
  1825  028D                     u945:
  1826  028D  1003               	clrc
  1827  028E  0DBC               	rlf	___flmul@grs,f
  1828  028F  0DBD               	rlf	___flmul@grs+1,f
  1829  0290  0DBE               	rlf	___flmul@grs+2,f
  1830  0291  0DBF               	rlf	___flmul@grs+3,f
  1831  0292  0BB6               	decfsz	??___flmul,f
  1832  0293  2A8D               	goto	u945
  1833  0294                     l1171:
  1834  0294  0841               	movf	___flmul@bexp,w
  1835  0295  0740               	addwf	___flmul@aexp,w
  1836  0296  00B6               	movwf	??___flmul
  1837  0297  01B7               	clrf	??___flmul+1
  1838  0298  0DB7               	rlf	??___flmul+1,f
  1839  0299  0836               	movf	??___flmul,w
  1840  029A  3E82               	addlw	130
  1841  029B  00C6               	movwf	___flmul@temp
  1842  029C  0837               	movf	??___flmul+1,w
  1843  029D  1803               	skipnc
  1844  029E  3E01               	addlw	1
  1845  029F  3EFF               	addlw	255
  1846  02A0  00C7               	movwf	___flmul@temp+1
  1847  02A1  2ABF               	goto	l1183
  1848  02A2                     l1173:
  1849  02A2  3001               	movlw	1
  1850  02A3  00B6               	movwf	??___flmul
  1851  02A4                     u955:
  1852  02A4  1003               	clrc
  1853  02A5  0DC2               	rlf	___flmul@prod,f
  1854  02A6  0DC3               	rlf	___flmul@prod+1,f
  1855  02A7  0DC4               	rlf	___flmul@prod+2,f
  1856  02A8  0DC5               	rlf	___flmul@prod+3,f
  1857  02A9  0BB6               	decfsz	??___flmul,f
  1858  02AA  2AA4               	goto	u955
  1859  02AB                     l1175:
  1860  02AB  1FBF               	btfss	___flmul@grs+3,7
  1861  02AC  2AAE               	goto	u961
  1862  02AD  2AAF               	goto	u960
  1863  02AE                     u961:
  1864  02AE  2AB0               	goto	l1179
  1865  02AF                     u960:
  1866  02AF                     l1177:
  1867  02AF  1442               	bsf	___flmul@prod,0
  1868  02B0                     l1179:
  1869  02B0  3001               	movlw	1
  1870  02B1  00B6               	movwf	??___flmul
  1871  02B2                     u975:
  1872  02B2  1003               	clrc
  1873  02B3  0DBC               	rlf	___flmul@grs,f
  1874  02B4  0DBD               	rlf	___flmul@grs+1,f
  1875  02B5  0DBE               	rlf	___flmul@grs+2,f
  1876  02B6  0DBF               	rlf	___flmul@grs+3,f
  1877  02B7  0BB6               	decfsz	??___flmul,f
  1878  02B8  2AB2               	goto	u975
  1879  02B9                     l1181:
  1880  02B9  30FF               	movlw	255
  1881  02BA  07C6               	addwf	___flmul@temp,f
  1882  02BB  1803               	skipnc
  1883  02BC  0AC7               	incf	___flmul@temp+1,f
  1884  02BD  30FF               	movlw	255
  1885  02BE  07C7               	addwf	___flmul@temp+1,f
  1886  02BF                     l1183:
  1887  02BF  1FC4               	btfss	___flmul@prod+2,7
  1888  02C0  2AC2               	goto	u981
  1889  02C1  2AC3               	goto	u980
  1890  02C2                     u981:
  1891  02C2  2AA2               	goto	l1173
  1892  02C3                     u980:
  1893  02C3                     l1185:
  1894  02C3  01C0               	clrf	___flmul@aexp
  1895  02C4                     l1187:
  1896  02C4  1FBF               	btfss	___flmul@grs+3,7
  1897  02C5  2AC7               	goto	u991
  1898  02C6  2AC8               	goto	u990
  1899  02C7                     u991:
  1900  02C7  2AE4               	goto	l1195
  1901  02C8                     u990:
  1902  02C8                     l1189:
  1903  02C8  30FF               	movlw	255
  1904  02C9  053C               	andwf	___flmul@grs,w
  1905  02CA  00B6               	movwf	??___flmul
  1906  02CB  30FF               	movlw	255
  1907  02CC  053D               	andwf	___flmul@grs+1,w
  1908  02CD  00B7               	movwf	??___flmul+1
  1909  02CE  30FF               	movlw	255
  1910  02CF  053E               	andwf	___flmul@grs+2,w
  1911  02D0  00B8               	movwf	??___flmul+2
  1912  02D1  307F               	movlw	127
  1913  02D2  053F               	andwf	___flmul@grs+3,w
  1914  02D3  00B9               	movwf	??___flmul+3
  1915  02D4  0839               	movf	??___flmul+3,w
  1916  02D5  0438               	iorwf	??___flmul+2,w
  1917  02D6  0437               	iorwf	??___flmul+1,w
  1918  02D7  0436               	iorwf	??___flmul,w
  1919  02D8  1903               	skipnz
  1920  02D9  2ADB               	goto	u1001
  1921  02DA  2ADC               	goto	u1000
  1922  02DB                     u1001:
  1923  02DB  2ADF               	goto	l592
  1924  02DC                     u1000:
  1925  02DC                     l1191:
  1926  02DC  01C0               	clrf	___flmul@aexp
  1927  02DD  0AC0               	incf	___flmul@aexp,f
  1928  02DE  2AE4               	goto	l1195
  1929  02DF                     l592:
  1930  02DF  1C42               	btfss	___flmul@prod,0
  1931  02E0  2AE2               	goto	u1011
  1932  02E1  2AE3               	goto	u1010
  1933  02E2                     u1011:
  1934  02E2  2AE4               	goto	l1195
  1935  02E3                     u1010:
  1936  02E3  2ADC               	goto	l1191
  1937  02E4                     l1195:
  1938  02E4  0840               	movf	___flmul@aexp,w
  1939  02E5  1903               	btfsc	3,2
  1940  02E6  2AE8               	goto	u1021
  1941  02E7  2AE9               	goto	u1020
  1942  02E8                     u1021:
  1943  02E8  2B1A               	goto	l1205
  1944  02E9                     u1020:
  1945  02E9                     l1197:
  1946  02E9  3001               	movlw	1
  1947  02EA  07C2               	addwf	___flmul@prod,f
  1948  02EB  3000               	movlw	0
  1949  02EC  1803               	skipnc
  1950  02ED  3001               	movlw	1
  1951  02EE  07C3               	addwf	___flmul@prod+1,f
  1952  02EF  3000               	movlw	0
  1953  02F0  1803               	skipnc
  1954  02F1  3001               	movlw	1
  1955  02F2  07C4               	addwf	___flmul@prod+2,f
  1956  02F3  3000               	movlw	0
  1957  02F4  1803               	skipnc
  1958  02F5  3001               	movlw	1
  1959  02F6  07C5               	addwf	___flmul@prod+3,f
  1960  02F7                     l1199:
  1961  02F7  1C45               	btfss	___flmul@prod+3,0
  1962  02F8  2AFA               	goto	u1031
  1963  02F9  2AFB               	goto	u1030
  1964  02FA                     u1031:
  1965  02FA  2B1A               	goto	l1205
  1966  02FB                     u1030:
  1967  02FB                     l1201:
  1968  02FB  0842               	movf	___flmul@prod,w
  1969  02FC  00B6               	movwf	??___flmul
  1970  02FD  0843               	movf	___flmul@prod+1,w
  1971  02FE  00B7               	movwf	??___flmul+1
  1972  02FF  0844               	movf	___flmul@prod+2,w
  1973  0300  00B8               	movwf	??___flmul+2
  1974  0301  0845               	movf	___flmul@prod+3,w
  1975  0302  00B9               	movwf	??___flmul+3
  1976  0303  3001               	movlw	1
  1977  0304  00BA               	movwf	??___flmul+4
  1978  0305                     u1045:
  1979  0305  0D39               	rlf	??___flmul+3,w
  1980  0306  0CB9               	rrf	??___flmul+3,f
  1981  0307  0CB8               	rrf	??___flmul+2,f
  1982  0308  0CB7               	rrf	??___flmul+1,f
  1983  0309  0CB6               	rrf	??___flmul,f
  1984  030A                     u1040:
  1985  030A  0BBA               	decfsz	??___flmul+4,f
  1986  030B  2B05               	goto	u1045
  1987  030C  0839               	movf	??___flmul+3,w
  1988  030D  00C5               	movwf	___flmul@prod+3
  1989  030E  0838               	movf	??___flmul+2,w
  1990  030F  00C4               	movwf	___flmul@prod+2
  1991  0310  0837               	movf	??___flmul+1,w
  1992  0311  00C3               	movwf	___flmul@prod+1
  1993  0312  0836               	movf	??___flmul,w
  1994  0313  00C2               	movwf	___flmul@prod
  1995  0314                     l1203:
  1996  0314  3001               	movlw	1
  1997  0315  07C6               	addwf	___flmul@temp,f
  1998  0316  1803               	skipnc
  1999  0317  0AC7               	incf	___flmul@temp+1,f
  2000  0318  3000               	movlw	0
  2001  0319  07C7               	addwf	___flmul@temp+1,f
  2002  031A                     l1205:
  2003  031A  0847               	movf	___flmul@temp+1,w
  2004  031B  3A80               	xorlw	128
  2005  031C  00FF               	movwf	btemp+1
  2006  031D  3080               	movlw	128
  2007  031E  027F               	subwf	btemp+1,w
  2008  031F  1D03               	skipz
  2009  0320  2B23               	goto	u1055
  2010  0321  30FF               	movlw	255
  2011  0322  0246               	subwf	___flmul@temp,w
  2012  0323                     u1055:
  2013  0323  1C03               	skipc
  2014  0324  2B26               	goto	u1051
  2015  0325  2B27               	goto	u1050
  2016  0326                     u1051:
  2017  0326  2B32               	goto	l1209
  2018  0327                     u1050:
  2019  0327                     l1207:
  2020  0327  307F               	movlw	127
  2021  0328  1283               	bcf	3,5	;RP0=0, select bank0
  2022  0329  1303               	bcf	3,6	;RP1=0, select bank0
  2023  032A  00C5               	movwf	___flmul@prod+3
  2024  032B  3080               	movlw	128
  2025  032C  00C4               	movwf	___flmul@prod+2
  2026  032D  3000               	movlw	0
  2027  032E  00C3               	movwf	___flmul@prod+1
  2028  032F  3000               	movlw	0
  2029  0330  00C2               	movwf	___flmul@prod
  2030  0331  2B67               	goto	l598
  2031  0332                     l1209:
  2032  0332  1283               	bcf	3,5	;RP0=0, select bank0
  2033  0333  1303               	bcf	3,6	;RP1=0, select bank0
  2034  0334  0847               	movf	___flmul@temp+1,w
  2035  0335  3A80               	xorlw	128
  2036  0336  00FF               	movwf	btemp+1
  2037  0337  3080               	movlw	128
  2038  0338  027F               	subwf	btemp+1,w
  2039  0339  1D03               	skipz
  2040  033A  2B3D               	goto	u1065
  2041  033B  3001               	movlw	1
  2042  033C  0246               	subwf	___flmul@temp,w
  2043  033D                     u1065:
  2044  033D  1803               	skipnc
  2045  033E  2B40               	goto	u1061
  2046  033F  2B41               	goto	u1060
  2047  0340                     u1061:
  2048  0340  2B4D               	goto	l1215
  2049  0341                     u1060:
  2050  0341                     l1211:
  2051  0341  3000               	movlw	0
  2052  0342  1283               	bcf	3,5	;RP0=0, select bank0
  2053  0343  1303               	bcf	3,6	;RP1=0, select bank0
  2054  0344  00C5               	movwf	___flmul@prod+3
  2055  0345  3000               	movlw	0
  2056  0346  00C4               	movwf	___flmul@prod+2
  2057  0347  3000               	movlw	0
  2058  0348  00C3               	movwf	___flmul@prod+1
  2059  0349  3000               	movlw	0
  2060  034A  00C2               	movwf	___flmul@prod
  2061  034B                     l1213:
  2062  034B  01BB               	clrf	___flmul@sign
  2063  034C  2B67               	goto	l598
  2064  034D                     l1215:
  2065  034D  1283               	bcf	3,5	;RP0=0, select bank0
  2066  034E  1303               	bcf	3,6	;RP1=0, select bank0
  2067  034F  0846               	movf	___flmul@temp,w
  2068  0350  00B6               	movwf	??___flmul
  2069  0351  0836               	movf	??___flmul,w
  2070  0352  00C1               	movwf	___flmul@bexp
  2071  0353  30FF               	movlw	255
  2072  0354  05C2               	andwf	___flmul@prod,f
  2073  0355  30FF               	movlw	255
  2074  0356  05C3               	andwf	___flmul@prod+1,f
  2075  0357  307F               	movlw	127
  2076  0358  05C4               	andwf	___flmul@prod+2,f
  2077  0359  3000               	movlw	0
  2078  035A  05C5               	andwf	___flmul@prod+3,f
  2079  035B                     l1217:
  2080  035B  1C41               	btfss	___flmul@bexp,0
  2081  035C  2B5E               	goto	u1071
  2082  035D  2B5F               	goto	u1070
  2083  035E                     u1071:
  2084  035E  2B60               	goto	l1221
  2085  035F                     u1070:
  2086  035F                     l1219:
  2087  035F  17C4               	bsf	___flmul@prod+2,7
  2088  0360                     l1221:
  2089  0360  0841               	movf	___flmul@bexp,w
  2090  0361  00B6               	movwf	??___flmul
  2091  0362  1003               	clrc
  2092  0363  0C36               	rrf	??___flmul,w
  2093  0364  00B7               	movwf	??___flmul+1
  2094  0365  0837               	movf	??___flmul+1,w
  2095  0366  00C5               	movwf	___flmul@prod+3
  2096  0367                     l598:
  2097  0367  083B               	movf	___flmul@sign,w
  2098  0368  00B6               	movwf	??___flmul
  2099  0369  0836               	movf	??___flmul,w
  2100  036A  04C5               	iorwf	___flmul@prod+3,f
  2101  036B                     l1223:
  2102  036B  0845               	movf	___flmul@prod+3,w
  2103  036C  00B1               	movwf	?___flmul+3
  2104  036D  0844               	movf	___flmul@prod+2,w
  2105  036E  00B0               	movwf	?___flmul+2
  2106  036F  0843               	movf	___flmul@prod+1,w
  2107  0370  00AF               	movwf	?___flmul+1
  2108  0371  0842               	movf	___flmul@prod,w
  2109  0372  00AE               	movwf	?___flmul
  2110  0373                     l586:
  2111  0373  0008               	return
  2112  0374                     __end_of___flmul:
  2113                           
  2114                           	psect	text5
  2115  063A                     __ptext5:	
  2116 ;; *************** function __Umul8_16 *****************
  2117 ;; Defined at:
  2118 ;;		line 4 in file "C:\Program Files\Microchip\xc8\v2.31\pic\sources\c90\common\Umul8_16.c"
  2119 ;; Parameters:    Size  Location     Type
  2120 ;;  multiplier      1    wreg     unsigned char 
  2121 ;;  multiplicand    1    0[BANK0 ] unsigned char 
  2122 ;; Auto vars:     Size  Location     Type
  2123 ;;  multiplier      1    8[BANK0 ] unsigned char 
  2124 ;;  word_mpld       2    6[BANK0 ] unsigned int 
  2125 ;;  product         2    4[BANK0 ] unsigned int 
  2126 ;; Return value:  Size  Location     Type
  2127 ;;                  2    0[BANK0 ] unsigned int 
  2128 ;; Registers used:
  2129 ;;		wreg, status,2, status,0
  2130 ;; Tracked objects:
  2131 ;;		On entry : 0/0
  2132 ;;		On exit  : 0/0
  2133 ;;		Unchanged: 0/0
  2134 ;; Data sizes:     COMMON   BANK0   BANK1   BANK3   BANK2
  2135 ;;      Params:         0       2       0       0       0
  2136 ;;      Locals:         0       5       0       0       0
  2137 ;;      Temps:          0       2       0       0       0
  2138 ;;      Totals:         0       9       0       0       0
  2139 ;;Total ram usage:        9 bytes
  2140 ;; Hardware stack levels used:    1
  2141 ;; Hardware stack levels required when called:    2
  2142 ;; This function calls:
  2143 ;;		Nothing
  2144 ;; This function is called by:
  2145 ;;		___flmul
  2146 ;; This function uses a non-reentrant model
  2147 ;;
  2148                           
  2149                           
  2150                           ;psect for function __Umul8_16
  2151  063A                     __Umul8_16:
  2152                           
  2153                           ;incstack = 0
  2154                           ; Regs used in __Umul8_16: [wreg+status,2+status,0]
  2155                           ;__Umul8_16@multiplier stored from wreg
  2156  063A  1283               	bcf	3,5	;RP0=0, select bank0
  2157  063B  1303               	bcf	3,6	;RP1=0, select bank0
  2158  063C  00A8               	movwf	__Umul8_16@multiplier
  2159  063D                     l1059:
  2160  063D  01A4               	clrf	__Umul8_16@product
  2161  063E  01A5               	clrf	__Umul8_16@product+1
  2162  063F                     l1061:
  2163  063F  0820               	movf	__Umul8_16@multiplicand,w
  2164  0640  00A2               	movwf	??__Umul8_16
  2165  0641  01A3               	clrf	??__Umul8_16+1
  2166  0642  0822               	movf	??__Umul8_16,w
  2167  0643  00A6               	movwf	__Umul8_16@word_mpld
  2168  0644  0823               	movf	??__Umul8_16+1,w
  2169  0645  00A7               	movwf	__Umul8_16@word_mpld+1
  2170  0646                     l1063:
  2171  0646  1C28               	btfss	__Umul8_16@multiplier,0
  2172  0647  2E49               	goto	u681
  2173  0648  2E4A               	goto	u680
  2174  0649                     u681:
  2175  0649  2E50               	goto	l605
  2176  064A                     u680:
  2177  064A                     l1065:
  2178  064A  0826               	movf	__Umul8_16@word_mpld,w
  2179  064B  07A4               	addwf	__Umul8_16@product,f
  2180  064C  1803               	skipnc
  2181  064D  0AA5               	incf	__Umul8_16@product+1,f
  2182  064E  0827               	movf	__Umul8_16@word_mpld+1,w
  2183  064F  07A5               	addwf	__Umul8_16@product+1,f
  2184  0650                     l605:
  2185  0650  3001               	movlw	1
  2186  0651                     u695:
  2187  0651  1003               	clrc
  2188  0652  0DA6               	rlf	__Umul8_16@word_mpld,f
  2189  0653  0DA7               	rlf	__Umul8_16@word_mpld+1,f
  2190  0654  3EFF               	addlw	-1
  2191  0655  1D03               	skipz
  2192  0656  2E51               	goto	u695
  2193  0657  1003               	clrc
  2194  0658  0CA8               	rrf	__Umul8_16@multiplier,f
  2195  0659                     l1067:
  2196  0659  0828               	movf	__Umul8_16@multiplier,w
  2197  065A  1D03               	btfss	3,2
  2198  065B  2E5D               	goto	u701
  2199  065C  2E5E               	goto	u700
  2200  065D                     u701:
  2201  065D  2E46               	goto	l1063
  2202  065E                     u700:
  2203  065E                     l1069:
  2204  065E  0825               	movf	__Umul8_16@product+1,w
  2205  065F  00A1               	movwf	?__Umul8_16+1
  2206  0660  0824               	movf	__Umul8_16@product,w
  2207  0661  00A0               	movwf	?__Umul8_16
  2208  0662                     l607:
  2209  0662  0008               	return
  2210  0663                     __end_of__Umul8_16:
  2211                           
  2212                           	psect	text6
  2213  0374                     __ptext6:	
  2214 ;; *************** function _ValorADC *****************
  2215 ;; Defined at:
  2216 ;;		line 20 in file "ADC.c"
  2217 ;; Parameters:    Size  Location     Type
  2218 ;;  x               1    wreg     unsigned char 
  2219 ;; Auto vars:     Size  Location     Type
  2220 ;;  x               1    2[BANK0 ] unsigned char 
  2221 ;; Return value:  Size  Location     Type
  2222 ;;                  1    wreg      unsigned char 
  2223 ;; Registers used:
  2224 ;;		wreg, fsr0l, fsr0h, status,2, status,0
  2225 ;; Tracked objects:
  2226 ;;		On entry : 0/0
  2227 ;;		On exit  : 0/0
  2228 ;;		Unchanged: 0/0
  2229 ;; Data sizes:     COMMON   BANK0   BANK1   BANK3   BANK2
  2230 ;;      Params:         0       0       0       0       0
  2231 ;;      Locals:         0       1       0       0       0
  2232 ;;      Temps:          0       2       0       0       0
  2233 ;;      Totals:         0       3       0       0       0
  2234 ;;Total ram usage:        3 bytes
  2235 ;; Hardware stack levels used:    1
  2236 ;; Hardware stack levels required when called:    2
  2237 ;; This function calls:
  2238 ;;		Nothing
  2239 ;; This function is called by:
  2240 ;;		_main
  2241 ;; This function uses a non-reentrant model
  2242 ;;
  2243                           
  2244                           
  2245                           ;psect for function _ValorADC
  2246  0374                     _ValorADC:
  2247                           
  2248                           ;incstack = 0
  2249                           ; Regs used in _ValorADC: [wreg-fsr0h+status,2+status,0]
  2250                           ;ValorADC@x stored from wreg
  2251  0374  1283               	bcf	3,5	;RP0=0, select bank0
  2252  0375  1303               	bcf	3,6	;RP1=0, select bank0
  2253  0376  00A2               	movwf	ValorADC@x
  2254  0377                     l1271:
  2255                           
  2256                           ;ADC.c: 21:     switch (x){
  2257  0377  2C2E               	goto	l1307
  2258  0378                     l25:	
  2259                           ;ADC.c: 22:         case 0: TRISAbits.TRISA0 = 1; ANSELbits.ANS0 = 1; ADCON0bits.CHS = 0
      +                          ; break;
  2260                           
  2261  0378  1683               	bsf	3,5	;RP0=1, select bank1
  2262  0379  1303               	bcf	3,6	;RP1=0, select bank1
  2263  037A  1405               	bsf	5,0	;volatile
  2264  037B  1683               	bsf	3,5	;RP0=1, select bank3
  2265  037C  1703               	bsf	3,6	;RP1=1, select bank3
  2266  037D  1408               	bsf	8,0	;volatile
  2267  037E                     l1273:
  2268  037E  30C3               	movlw	-61
  2269  037F  1283               	bcf	3,5	;RP0=0, select bank0
  2270  0380  1303               	bcf	3,6	;RP1=0, select bank0
  2271  0381  059F               	andwf	31,f	;volatile
  2272  0382  2C62               	goto	l26
  2273  0383                     l27:	
  2274                           ;ADC.c: 23:         case 1: TRISAbits.TRISA1 = 1; ANSELbits.ANS1 = 1; ADCON0bits.CHS = 1
      +                          ; break;
  2275                           
  2276  0383  1683               	bsf	3,5	;RP0=1, select bank1
  2277  0384  1303               	bcf	3,6	;RP1=0, select bank1
  2278  0385  1485               	bsf	5,1	;volatile
  2279  0386  1683               	bsf	3,5	;RP0=1, select bank3
  2280  0387  1703               	bsf	3,6	;RP1=1, select bank3
  2281  0388  1488               	bsf	8,1	;volatile
  2282  0389                     l1275:
  2283  0389  1283               	bcf	3,5	;RP0=0, select bank0
  2284  038A  1303               	bcf	3,6	;RP1=0, select bank0
  2285  038B  081F               	movf	31,w	;volatile
  2286  038C  39C3               	andlw	-61
  2287  038D  3804               	iorlw	4
  2288  038E  009F               	movwf	31	;volatile
  2289  038F  2C62               	goto	l26
  2290  0390                     l28:	
  2291                           ;ADC.c: 24:         case 2: TRISAbits.TRISA2 = 1; ANSELbits.ANS2 = 1; ADCON0bits.CHS = 2
      +                          ; break;
  2292                           
  2293  0390  1683               	bsf	3,5	;RP0=1, select bank1
  2294  0391  1303               	bcf	3,6	;RP1=0, select bank1
  2295  0392  1505               	bsf	5,2	;volatile
  2296  0393  1683               	bsf	3,5	;RP0=1, select bank3
  2297  0394  1703               	bsf	3,6	;RP1=1, select bank3
  2298  0395  1508               	bsf	8,2	;volatile
  2299  0396                     l1277:
  2300  0396  1283               	bcf	3,5	;RP0=0, select bank0
  2301  0397  1303               	bcf	3,6	;RP1=0, select bank0
  2302  0398  081F               	movf	31,w	;volatile
  2303  0399  39C3               	andlw	-61
  2304  039A  3808               	iorlw	8
  2305  039B  009F               	movwf	31	;volatile
  2306  039C  2C62               	goto	l26
  2307  039D                     l29:	
  2308                           ;ADC.c: 25:         case 3: TRISAbits.TRISA3 = 1; ANSELbits.ANS3 = 1; ADCON0bits.CHS = 3
      +                          ; break;
  2309                           
  2310  039D  1683               	bsf	3,5	;RP0=1, select bank1
  2311  039E  1303               	bcf	3,6	;RP1=0, select bank1
  2312  039F  1585               	bsf	5,3	;volatile
  2313  03A0  1683               	bsf	3,5	;RP0=1, select bank3
  2314  03A1  1703               	bsf	3,6	;RP1=1, select bank3
  2315  03A2  1588               	bsf	8,3	;volatile
  2316  03A3                     l1279:
  2317  03A3  1283               	bcf	3,5	;RP0=0, select bank0
  2318  03A4  1303               	bcf	3,6	;RP1=0, select bank0
  2319  03A5  081F               	movf	31,w	;volatile
  2320  03A6  39C3               	andlw	-61
  2321  03A7  380C               	iorlw	12
  2322  03A8  009F               	movwf	31	;volatile
  2323  03A9  2C62               	goto	l26
  2324  03AA                     l30:	
  2325                           ;ADC.c: 26:         case 4: TRISAbits.TRISA5 = 1; ANSELbits.ANS4 = 1; ADCON0bits.CHS = 4
      +                          ; break;
  2326                           
  2327  03AA  1683               	bsf	3,5	;RP0=1, select bank1
  2328  03AB  1303               	bcf	3,6	;RP1=0, select bank1
  2329  03AC  1685               	bsf	5,5	;volatile
  2330  03AD  1683               	bsf	3,5	;RP0=1, select bank3
  2331  03AE  1703               	bsf	3,6	;RP1=1, select bank3
  2332  03AF  1608               	bsf	8,4	;volatile
  2333  03B0                     l1281:
  2334  03B0  1283               	bcf	3,5	;RP0=0, select bank0
  2335  03B1  1303               	bcf	3,6	;RP1=0, select bank0
  2336  03B2  081F               	movf	31,w	;volatile
  2337  03B3  39C3               	andlw	-61
  2338  03B4  3810               	iorlw	16
  2339  03B5  009F               	movwf	31	;volatile
  2340  03B6  2C62               	goto	l26
  2341  03B7                     l31:	
  2342                           ;ADC.c: 27:         case 5: TRISEbits.TRISE0 = 1; ANSELbits.ANS5 = 1; ADCON0bits.CHS = 5
      +                          ; break;
  2343                           
  2344  03B7  1683               	bsf	3,5	;RP0=1, select bank1
  2345  03B8  1303               	bcf	3,6	;RP1=0, select bank1
  2346  03B9  1409               	bsf	9,0	;volatile
  2347  03BA  1683               	bsf	3,5	;RP0=1, select bank3
  2348  03BB  1703               	bsf	3,6	;RP1=1, select bank3
  2349  03BC  1688               	bsf	8,5	;volatile
  2350  03BD                     l1283:
  2351  03BD  1283               	bcf	3,5	;RP0=0, select bank0
  2352  03BE  1303               	bcf	3,6	;RP1=0, select bank0
  2353  03BF  081F               	movf	31,w	;volatile
  2354  03C0  39C3               	andlw	-61
  2355  03C1  3814               	iorlw	20
  2356  03C2  009F               	movwf	31	;volatile
  2357  03C3  2C62               	goto	l26
  2358  03C4                     l32:	
  2359                           ;ADC.c: 28:         case 6: TRISEbits.TRISE2 = 1; ANSELbits.ANS6 = 1; ADCON0bits.CHS = 6
      +                          ; break;
  2360                           
  2361  03C4  1683               	bsf	3,5	;RP0=1, select bank1
  2362  03C5  1303               	bcf	3,6	;RP1=0, select bank1
  2363  03C6  1509               	bsf	9,2	;volatile
  2364  03C7  1683               	bsf	3,5	;RP0=1, select bank3
  2365  03C8  1703               	bsf	3,6	;RP1=1, select bank3
  2366  03C9  1708               	bsf	8,6	;volatile
  2367  03CA                     l1285:
  2368  03CA  1283               	bcf	3,5	;RP0=0, select bank0
  2369  03CB  1303               	bcf	3,6	;RP1=0, select bank0
  2370  03CC  081F               	movf	31,w	;volatile
  2371  03CD  39C3               	andlw	-61
  2372  03CE  3818               	iorlw	24
  2373  03CF  009F               	movwf	31	;volatile
  2374  03D0  2C62               	goto	l26
  2375  03D1                     l33:	
  2376                           ;ADC.c: 29:         case 7: TRISEbits.TRISE3 = 1; ANSELbits.ANS7 = 1; ADCON0bits.CHS = 7
      +                          ; break;
  2377                           
  2378  03D1  1683               	bsf	3,5	;RP0=1, select bank1
  2379  03D2  1303               	bcf	3,6	;RP1=0, select bank1
  2380  03D3  1589               	bsf	9,3	;volatile
  2381  03D4  1683               	bsf	3,5	;RP0=1, select bank3
  2382  03D5  1703               	bsf	3,6	;RP1=1, select bank3
  2383  03D6  1788               	bsf	8,7	;volatile
  2384  03D7                     l1287:
  2385  03D7  1283               	bcf	3,5	;RP0=0, select bank0
  2386  03D8  1303               	bcf	3,6	;RP1=0, select bank0
  2387  03D9  081F               	movf	31,w	;volatile
  2388  03DA  39C3               	andlw	-61
  2389  03DB  381C               	iorlw	28
  2390  03DC  009F               	movwf	31	;volatile
  2391  03DD  2C62               	goto	l26
  2392  03DE                     l34:	
  2393                           ;ADC.c: 30:         case 8: TRISBbits.TRISB2 = 1; ANSELHbits.ANS8 = 1; ADCON0bits.CHS = 
      +                          8; break;
  2394                           
  2395  03DE  1683               	bsf	3,5	;RP0=1, select bank1
  2396  03DF  1303               	bcf	3,6	;RP1=0, select bank1
  2397  03E0  1506               	bsf	6,2	;volatile
  2398  03E1  1683               	bsf	3,5	;RP0=1, select bank3
  2399  03E2  1703               	bsf	3,6	;RP1=1, select bank3
  2400  03E3  1409               	bsf	9,0	;volatile
  2401  03E4                     l1289:
  2402  03E4  1283               	bcf	3,5	;RP0=0, select bank0
  2403  03E5  1303               	bcf	3,6	;RP1=0, select bank0
  2404  03E6  081F               	movf	31,w	;volatile
  2405  03E7  39C3               	andlw	-61
  2406  03E8  3820               	iorlw	32
  2407  03E9  009F               	movwf	31	;volatile
  2408  03EA  2C62               	goto	l26
  2409  03EB                     l35:	
  2410                           ;ADC.c: 31:         case 9: TRISBbits.TRISB3 = 1; ANSELHbits.ANS9 = 1; ADCON0bits.CHS = 
      +                          9; break;
  2411                           
  2412  03EB  1683               	bsf	3,5	;RP0=1, select bank1
  2413  03EC  1303               	bcf	3,6	;RP1=0, select bank1
  2414  03ED  1586               	bsf	6,3	;volatile
  2415  03EE  1683               	bsf	3,5	;RP0=1, select bank3
  2416  03EF  1703               	bsf	3,6	;RP1=1, select bank3
  2417  03F0  1489               	bsf	9,1	;volatile
  2418  03F1                     l1291:
  2419  03F1  1283               	bcf	3,5	;RP0=0, select bank0
  2420  03F2  1303               	bcf	3,6	;RP1=0, select bank0
  2421  03F3  081F               	movf	31,w	;volatile
  2422  03F4  39C3               	andlw	-61
  2423  03F5  3824               	iorlw	36
  2424  03F6  009F               	movwf	31	;volatile
  2425  03F7  2C62               	goto	l26
  2426  03F8                     l36:	
  2427                           ;ADC.c: 32:         case 10: TRISBbits.TRISB1 = 1; ANSELHbits.ANS10 = 1; ADCON0bits.CHS 
      +                          = 10; break;
  2428                           
  2429  03F8  1683               	bsf	3,5	;RP0=1, select bank1
  2430  03F9  1303               	bcf	3,6	;RP1=0, select bank1
  2431  03FA  1486               	bsf	6,1	;volatile
  2432  03FB  1683               	bsf	3,5	;RP0=1, select bank3
  2433  03FC  1703               	bsf	3,6	;RP1=1, select bank3
  2434  03FD  1509               	bsf	9,2	;volatile
  2435  03FE                     l1293:
  2436  03FE  1283               	bcf	3,5	;RP0=0, select bank0
  2437  03FF  1303               	bcf	3,6	;RP1=0, select bank0
  2438  0400  081F               	movf	31,w	;volatile
  2439  0401  39C3               	andlw	-61
  2440  0402  3828               	iorlw	40
  2441  0403  009F               	movwf	31	;volatile
  2442  0404  2C62               	goto	l26
  2443  0405                     l37:	
  2444                           ;ADC.c: 33:         case 11: TRISBbits.TRISB4 = 1; ANSELHbits.ANS11= 1; ADCON0bits.CHS =
      +                           11; break;
  2445                           
  2446  0405  1683               	bsf	3,5	;RP0=1, select bank1
  2447  0406  1303               	bcf	3,6	;RP1=0, select bank1
  2448  0407  1606               	bsf	6,4	;volatile
  2449  0408  1683               	bsf	3,5	;RP0=1, select bank3
  2450  0409  1703               	bsf	3,6	;RP1=1, select bank3
  2451  040A  1589               	bsf	9,3	;volatile
  2452  040B                     l1295:
  2453  040B  1283               	bcf	3,5	;RP0=0, select bank0
  2454  040C  1303               	bcf	3,6	;RP1=0, select bank0
  2455  040D  081F               	movf	31,w	;volatile
  2456  040E  39C3               	andlw	-61
  2457  040F  382C               	iorlw	44
  2458  0410  009F               	movwf	31	;volatile
  2459  0411  2C62               	goto	l26
  2460  0412                     l38:	
  2461                           ;ADC.c: 34:         case 12: TRISBbits.TRISB0 = 1; ANSELHbits.ANS12 = 1; ADCON0bits.CHS 
      +                          = 12; break;
  2462                           
  2463  0412  1683               	bsf	3,5	;RP0=1, select bank1
  2464  0413  1303               	bcf	3,6	;RP1=0, select bank1
  2465  0414  1406               	bsf	6,0	;volatile
  2466  0415  1683               	bsf	3,5	;RP0=1, select bank3
  2467  0416  1703               	bsf	3,6	;RP1=1, select bank3
  2468  0417  1609               	bsf	9,4	;volatile
  2469  0418                     l1297:
  2470  0418  1283               	bcf	3,5	;RP0=0, select bank0
  2471  0419  1303               	bcf	3,6	;RP1=0, select bank0
  2472  041A  081F               	movf	31,w	;volatile
  2473  041B  39C3               	andlw	-61
  2474  041C  3830               	iorlw	48
  2475  041D  009F               	movwf	31	;volatile
  2476  041E  2C62               	goto	l26
  2477  041F                     l39:	
  2478                           ;ADC.c: 35:         case 13: TRISBbits.TRISB5 = 1; ANSELHbits.ANS13 = 1; ADCON0bits.CHS 
      +                          = 13; break;
  2479                           
  2480  041F  1683               	bsf	3,5	;RP0=1, select bank1
  2481  0420  1303               	bcf	3,6	;RP1=0, select bank1
  2482  0421  1686               	bsf	6,5	;volatile
  2483  0422  1683               	bsf	3,5	;RP0=1, select bank3
  2484  0423  1703               	bsf	3,6	;RP1=1, select bank3
  2485  0424  1689               	bsf	9,5	;volatile
  2486  0425                     l1299:
  2487  0425  1283               	bcf	3,5	;RP0=0, select bank0
  2488  0426  1303               	bcf	3,6	;RP1=0, select bank0
  2489  0427  081F               	movf	31,w	;volatile
  2490  0428  39C3               	andlw	-61
  2491  0429  3834               	iorlw	52
  2492  042A  009F               	movwf	31	;volatile
  2493  042B  2C62               	goto	l26
  2494  042C                     l1301:
  2495  042C  3000               	movlw	0
  2496  042D  2C74               	goto	l41
  2497  042E                     l1307:
  2498  042E  0822               	movf	ValorADC@x,w
  2499  042F  00A0               	movwf	??_ValorADC
  2500  0430  01A1               	clrf	??_ValorADC+1
  2501                           
  2502                           ; Switch on 2 bytes has been partitioned into a top level switch of size 1, and 1 sub-sw
      +                          itches
  2503                           ; Switch size 1, requested type "simple"
  2504                           ; Number of cases is 1, Range of values is 0 to 0
  2505                           ; switch strategies available:
  2506                           ; Name         Instructions Cycles
  2507                           ; simple_byte            4     3 (average)
  2508                           ; direct_byte           11     8 (fixed)
  2509                           ; jumptable            260     6 (fixed)
  2510                           ;	Chosen strategy is simple_byte
  2511  0431  0821               	movf	??_ValorADC+1,w
  2512  0432  3A00               	xorlw	0	; case 0
  2513  0433  1903               	skipnz
  2514  0434  2C36               	goto	l1427
  2515  0435  2C2C               	goto	l1301
  2516  0436                     l1427:
  2517                           
  2518                           ; Switch size 1, requested type "simple"
  2519                           ; Number of cases is 14, Range of values is 0 to 13
  2520                           ; switch strategies available:
  2521                           ; Name         Instructions Cycles
  2522                           ; simple_byte           43    22 (average)
  2523                           ; direct_byte           50     8 (fixed)
  2524                           ; jumptable            260     6 (fixed)
  2525                           ;	Chosen strategy is simple_byte
  2526  0436  0820               	movf	??_ValorADC,w
  2527  0437  3A00               	xorlw	0	; case 0
  2528  0438  1903               	skipnz
  2529  0439  2B78               	goto	l25
  2530  043A  3A01               	xorlw	1	; case 1
  2531  043B  1903               	skipnz
  2532  043C  2B83               	goto	l27
  2533  043D  3A03               	xorlw	3	; case 2
  2534  043E  1903               	skipnz
  2535  043F  2B90               	goto	l28
  2536  0440  3A01               	xorlw	1	; case 3
  2537  0441  1903               	skipnz
  2538  0442  2B9D               	goto	l29
  2539  0443  3A07               	xorlw	7	; case 4
  2540  0444  1903               	skipnz
  2541  0445  2BAA               	goto	l30
  2542  0446  3A01               	xorlw	1	; case 5
  2543  0447  1903               	skipnz
  2544  0448  2BB7               	goto	l31
  2545  0449  3A03               	xorlw	3	; case 6
  2546  044A  1903               	skipnz
  2547  044B  2BC4               	goto	l32
  2548  044C  3A01               	xorlw	1	; case 7
  2549  044D  1903               	skipnz
  2550  044E  2BD1               	goto	l33
  2551  044F  3A0F               	xorlw	15	; case 8
  2552  0450  1903               	skipnz
  2553  0451  2BDE               	goto	l34
  2554  0452  3A01               	xorlw	1	; case 9
  2555  0453  1903               	skipnz
  2556  0454  2BEB               	goto	l35
  2557  0455  3A03               	xorlw	3	; case 10
  2558  0456  1903               	skipnz
  2559  0457  2BF8               	goto	l36
  2560  0458  3A01               	xorlw	1	; case 11
  2561  0459  1903               	skipnz
  2562  045A  2C05               	goto	l37
  2563  045B  3A07               	xorlw	7	; case 12
  2564  045C  1903               	skipnz
  2565  045D  2C12               	goto	l38
  2566  045E  3A01               	xorlw	1	; case 13
  2567  045F  1903               	skipnz
  2568  0460  2C1F               	goto	l39
  2569  0461  2C2C               	goto	l1301
  2570  0462                     l26:
  2571                           
  2572                           ;ADC.c: 38:     ADCON0bits.ADON = 1;
  2573  0462  141F               	bsf	31,0	;volatile
  2574  0463                     l1309:
  2575                           
  2576                           ;ADC.c: 39:     _delay((unsigned long)((20)*(8000000/4000000.0)));
  2577  0463  300C               	movlw	12
  2578  0464  1283               	bcf	3,5	;RP0=0, select bank0
  2579  0465  1303               	bcf	3,6	;RP1=0, select bank0
  2580  0466  00A0               	movwf	??_ValorADC
  2581  0467                     u1357:
  2582  0467  0BA0               	decfsz	??_ValorADC,f
  2583  0468  2C67               	goto	u1357
  2584  0469  0000               	nop
  2585  046A                     l1311:
  2586                           
  2587                           ;ADC.c: 40:     ADCON0bits.GO = 1;
  2588  046A  1283               	bcf	3,5	;RP0=0, select bank0
  2589  046B  1303               	bcf	3,6	;RP1=0, select bank0
  2590  046C  149F               	bsf	31,1	;volatile
  2591  046D                     l1313:
  2592                           
  2593                           ;ADC.c: 42:     if (ADCON0bits.GO_DONE ==1){goto resultado;}
  2594  046D  1C9F               	btfss	31,1	;volatile
  2595  046E  2C70               	goto	u1221
  2596  046F  2C71               	goto	u1220
  2597  0470                     u1221:
  2598  0470  2C72               	goto	l43
  2599  0471                     u1220:
  2600  0471  2C6D               	goto	l1313
  2601  0472                     l43:	
  2602                           ;ADC.c: 43:     else {ADCON0bits.ADON=0; return ADRESH;}
  2603                           
  2604  0472  101F               	bcf	31,0	;volatile
  2605  0473                     l1319:
  2606  0473  081E               	movf	30,w	;volatile
  2607  0474                     l41:
  2608  0474  0008               	return
  2609  0475                     __end_of_ValorADC:
  2610                           
  2611                           	psect	text7
  2612  0663                     __ptext7:	
  2613 ;; *************** function _Setup *****************
  2614 ;; Defined at:
  2615 ;;		line 52 in file "ESCLAVO_1.c"
  2616 ;; Parameters:    Size  Location     Type
  2617 ;;		None
  2618 ;; Auto vars:     Size  Location     Type
  2619 ;;		None
  2620 ;; Return value:  Size  Location     Type
  2621 ;;                  1    wreg      void 
  2622 ;; Registers used:
  2623 ;;		wreg, status,2, status,0, pclath, cstack
  2624 ;; Tracked objects:
  2625 ;;		On entry : 0/0
  2626 ;;		On exit  : 0/0
  2627 ;;		Unchanged: 0/0
  2628 ;; Data sizes:     COMMON   BANK0   BANK1   BANK3   BANK2
  2629 ;;      Params:         0       0       0       0       0
  2630 ;;      Locals:         0       0       0       0       0
  2631 ;;      Temps:          0       0       0       0       0
  2632 ;;      Totals:         0       0       0       0       0
  2633 ;;Total ram usage:        0 bytes
  2634 ;; Hardware stack levels used:    1
  2635 ;; Hardware stack levels required when called:    3
  2636 ;; This function calls:
  2637 ;;		_SPI_ES
  2638 ;;		_config_ADC
  2639 ;; This function is called by:
  2640 ;;		_main
  2641 ;; This function uses a non-reentrant model
  2642 ;;
  2643                           
  2644                           
  2645                           ;psect for function _Setup
  2646  0663                     _Setup:
  2647  0663                     l1329:	
  2648                           ;incstack = 0
  2649                           ; Regs used in _Setup: [wreg+status,2+status,0+pclath+cstack]
  2650                           
  2651                           
  2652                           ;ESCLAVO_1.c: 53:     TRISB=0;
  2653  0663  1683               	bsf	3,5	;RP0=1, select bank1
  2654  0664  1303               	bcf	3,6	;RP1=0, select bank1
  2655  0665  0186               	clrf	6	;volatile
  2656                           
  2657                           ;ESCLAVO_1.c: 54:     PORTB=0;
  2658  0666  1283               	bcf	3,5	;RP0=0, select bank0
  2659  0667  1303               	bcf	3,6	;RP1=0, select bank0
  2660  0668  0186               	clrf	6	;volatile
  2661                           
  2662                           ;ESCLAVO_1.c: 55:     ANSEL=0;
  2663  0669  1683               	bsf	3,5	;RP0=1, select bank3
  2664  066A  1703               	bsf	3,6	;RP1=1, select bank3
  2665  066B  0188               	clrf	8	;volatile
  2666                           
  2667                           ;ESCLAVO_1.c: 56:     ANSELH=0;
  2668  066C  0189               	clrf	9	;volatile
  2669  066D                     l1331:
  2670                           
  2671                           ;ESCLAVO_1.c: 57:     config_ADC();
  2672  066D  120A  118A  268B  120A  118A  	fcall	_config_ADC
  2673  0672                     l1333:
  2674                           
  2675                           ;ESCLAVO_1.c: 58:     SPI_ES();
  2676  0672  120A  118A  2678  120A  118A  	fcall	_SPI_ES
  2677  0677                     l75:
  2678  0677  0008               	return
  2679  0678                     __end_of_Setup:
  2680                           
  2681                           	psect	text8
  2682  068B                     __ptext8:	
  2683 ;; *************** function _config_ADC *****************
  2684 ;; Defined at:
  2685 ;;		line 15 in file "ADC.c"
  2686 ;; Parameters:    Size  Location     Type
  2687 ;;		None
  2688 ;; Auto vars:     Size  Location     Type
  2689 ;;		None
  2690 ;; Return value:  Size  Location     Type
  2691 ;;                  1    wreg      void 
  2692 ;; Registers used:
  2693 ;;		wreg, status,2, status,0
  2694 ;; Tracked objects:
  2695 ;;		On entry : 0/0
  2696 ;;		On exit  : 0/0
  2697 ;;		Unchanged: 0/0
  2698 ;; Data sizes:     COMMON   BANK0   BANK1   BANK3   BANK2
  2699 ;;      Params:         0       0       0       0       0
  2700 ;;      Locals:         0       0       0       0       0
  2701 ;;      Temps:          0       0       0       0       0
  2702 ;;      Totals:         0       0       0       0       0
  2703 ;;Total ram usage:        0 bytes
  2704 ;; Hardware stack levels used:    1
  2705 ;; Hardware stack levels required when called:    2
  2706 ;; This function calls:
  2707 ;;		Nothing
  2708 ;; This function is called by:
  2709 ;;		_Setup
  2710 ;; This function uses a non-reentrant model
  2711 ;;
  2712                           
  2713                           
  2714                           ;psect for function _config_ADC
  2715  068B                     _config_ADC:
  2716  068B                     l1073:	
  2717                           ;incstack = 0
  2718                           ; Regs used in _config_ADC: [wreg+status,2+status,0]
  2719                           
  2720                           
  2721                           ;ADC.c: 16:     ADCON0bits.ADCS = 1;
  2722  068B  1283               	bcf	3,5	;RP0=0, select bank0
  2723  068C  1303               	bcf	3,6	;RP1=0, select bank0
  2724  068D  081F               	movf	31,w	;volatile
  2725  068E  393F               	andlw	-193
  2726  068F  3840               	iorlw	64
  2727  0690  009F               	movwf	31	;volatile
  2728  0691                     l1075:
  2729                           
  2730                           ;ADC.c: 17:     ADCON1 = 0;
  2731  0691  1683               	bsf	3,5	;RP0=1, select bank1
  2732  0692  1303               	bcf	3,6	;RP1=0, select bank1
  2733  0693  019F               	clrf	31	;volatile
  2734  0694                     l21:
  2735  0694  0008               	return
  2736  0695                     __end_of_config_ADC:
  2737                           
  2738                           	psect	text9
  2739  0678                     __ptext9:	
  2740 ;; *************** function _SPI_ES *****************
  2741 ;; Defined at:
  2742 ;;		line 11 in file "spies.c"
  2743 ;; Parameters:    Size  Location     Type
  2744 ;;		None
  2745 ;; Auto vars:     Size  Location     Type
  2746 ;;		None
  2747 ;; Return value:  Size  Location     Type
  2748 ;;                  1    wreg      void 
  2749 ;; Registers used:
  2750 ;;		wreg, status,2
  2751 ;; Tracked objects:
  2752 ;;		On entry : 0/0
  2753 ;;		On exit  : 0/0
  2754 ;;		Unchanged: 0/0
  2755 ;; Data sizes:     COMMON   BANK0   BANK1   BANK3   BANK2
  2756 ;;      Params:         0       0       0       0       0
  2757 ;;      Locals:         0       0       0       0       0
  2758 ;;      Temps:          0       0       0       0       0
  2759 ;;      Totals:         0       0       0       0       0
  2760 ;;Total ram usage:        0 bytes
  2761 ;; Hardware stack levels used:    1
  2762 ;; Hardware stack levels required when called:    2
  2763 ;; This function calls:
  2764 ;;		Nothing
  2765 ;; This function is called by:
  2766 ;;		_Setup
  2767 ;; This function uses a non-reentrant model
  2768 ;;
  2769                           
  2770                           
  2771                           ;psect for function _SPI_ES
  2772  0678                     _SPI_ES:
  2773  0678                     l1077:	
  2774                           ;incstack = 0
  2775                           ; Regs used in _SPI_ES: [wreg+status,2]
  2776                           
  2777  0678  1683               	bsf	3,5	;RP0=1, select bank1
  2778  0679  1303               	bcf	3,6	;RP1=0, select bank1
  2779  067A  1587               	bsf	7,3	;volatile
  2780  067B  1287               	bcf	7,5	;volatile
  2781  067C  1685               	bsf	5,5	;volatile
  2782  067D                     l1079:
  2783  067D  3024               	movlw	36
  2784  067E  1283               	bcf	3,5	;RP0=0, select bank0
  2785  067F  1303               	bcf	3,6	;RP1=0, select bank0
  2786  0680  0094               	movwf	20	;volatile
  2787  0681                     l1081:
  2788  0681  1683               	bsf	3,5	;RP0=1, select bank1
  2789  0682  1303               	bcf	3,6	;RP1=0, select bank1
  2790  0683  0194               	clrf	20	;volatile
  2791  0684                     l1083:
  2792  0684  1283               	bcf	3,5	;RP0=0, select bank0
  2793  0685  1303               	bcf	3,6	;RP1=0, select bank0
  2794  0686  118C               	bcf	12,3	;volatile
  2795  0687                     l1085:
  2796  0687  1683               	bsf	3,5	;RP0=1, select bank1
  2797  0688  1303               	bcf	3,6	;RP1=0, select bank1
  2798  0689  158C               	bsf	12,3	;volatile
  2799  068A                     l111:
  2800  068A  0008               	return
  2801  068B                     __end_of_SPI_ES:
  2802                           
  2803                           	psect	text10
  2804  05E3                     __ptext10:	
  2805 ;; *************** function _ISR *****************
  2806 ;; Defined at:
  2807 ;;		line 79 in file "ESCLAVO_1.c"
  2808 ;; Parameters:    Size  Location     Type
  2809 ;;		None
  2810 ;; Auto vars:     Size  Location     Type
  2811 ;;		None
  2812 ;; Return value:  Size  Location     Type
  2813 ;;                  1    wreg      void 
  2814 ;; Registers used:
  2815 ;;		wreg, status,2, status,0, pclath, cstack
  2816 ;; Tracked objects:
  2817 ;;		On entry : 0/0
  2818 ;;		On exit  : 0/0
  2819 ;;		Unchanged: 0/0
  2820 ;; Data sizes:     COMMON   BANK0   BANK1   BANK3   BANK2
  2821 ;;      Params:         0       0       0       0       0
  2822 ;;      Locals:         0       0       0       0       0
  2823 ;;      Temps:          2       0       0       0       0
  2824 ;;      Totals:         2       0       0       0       0
  2825 ;;Total ram usage:        2 bytes
  2826 ;; Hardware stack levels used:    1
  2827 ;; Hardware stack levels required when called:    1
  2828 ;; This function calls:
  2829 ;;		___fltol
  2830 ;; This function is called by:
  2831 ;;		Interrupt level 1
  2832 ;; This function uses a non-reentrant model
  2833 ;;
  2834                           
  2835                           
  2836                           ;psect for function _ISR
  2837  05E3                     _ISR:
  2838  05E3                     i1l1377:
  2839                           
  2840                           ;ESCLAVO_1.c: 80:     INTCONbits.GIE = 1;
  2841  05E3  178B               	bsf	11,7	;volatile
  2842                           
  2843                           ;ESCLAVO_1.c: 81:     INTCONbits.PEIE = 1;
  2844  05E4  170B               	bsf	11,6	;volatile
  2845                           
  2846                           ;ESCLAVO_1.c: 83:     if(PIR1bits.SSPIF){
  2847  05E5  1283               	bcf	3,5	;RP0=0, select bank0
  2848  05E6  1303               	bcf	3,6	;RP1=0, select bank0
  2849  05E7  1D8C               	btfss	12,3	;volatile
  2850  05E8  2DEA               	goto	u133_21
  2851  05E9  2DEB               	goto	u133_20
  2852  05EA                     u133_21:
  2853  05EA  2E08               	goto	i1l88
  2854  05EB                     u133_20:
  2855  05EB                     i1l1379:
  2856                           
  2857                           ;ESCLAVO_1.c: 84:         if(!SSPSTATbits.BF){
  2858  05EB  1683               	bsf	3,5	;RP0=1, select bank1
  2859  05EC  1303               	bcf	3,6	;RP1=0, select bank1
  2860  05ED  1814               	btfsc	20,0	;volatile
  2861  05EE  2DF0               	goto	u134_21
  2862  05EF  2DF1               	goto	u134_20
  2863  05F0                     u134_21:
  2864  05F0  2DF5               	goto	i1l1383
  2865  05F1                     u134_20:
  2866  05F1                     i1l1381:
  2867                           
  2868                           ;ESCLAVO_1.c: 85:             PORTD = SSPBUF;
  2869  05F1  1283               	bcf	3,5	;RP0=0, select bank0
  2870  05F2  1303               	bcf	3,6	;RP1=0, select bank0
  2871  05F3  0813               	movf	19,w	;volatile
  2872  05F4  0088               	movwf	8	;volatile
  2873  05F5                     i1l1383:
  2874                           
  2875                           ;ESCLAVO_1.c: 87:         SSPBUF = V1;
  2876  05F5  1283               	bcf	3,5	;RP0=0, select bank0
  2877  05F6  0855               	movf	_V1+3,w
  2878  05F7  00F3               	movwf	___fltol@f1+3
  2879  05F8  0854               	movf	_V1+2,w
  2880  05F9  00F2               	movwf	___fltol@f1+2
  2881  05FA  0853               	movf	_V1+1,w
  2882  05FB  00F1               	movwf	___fltol@f1+1
  2883  05FC  0852               	movf	_V1,w
  2884  05FD  00F0               	movwf	___fltol@f1
  2885  05FE  120A  118A  2531  120A  118A  	fcall	___fltol
  2886  0603  0870               	movf	?___fltol,w
  2887  0604  1283               	bcf	3,5	;RP0=0, select bank0
  2888  0605  1303               	bcf	3,6	;RP1=0, select bank0
  2889  0606  0093               	movwf	19	;volatile
  2890  0607                     i1l1385:
  2891                           
  2892                           ;ESCLAVO_1.c: 88:         PIR1bits.SSPIF = 0;
  2893  0607  118C               	bcf	12,3	;volatile
  2894  0608                     i1l88:
  2895  0608  087C               	movf	??_ISR+1,w
  2896  0609  008A               	movwf	10
  2897  060A  0E7B               	swapf	??_ISR,w
  2898  060B  0083               	movwf	3
  2899  060C  0EFE               	swapf	btemp,f
  2900  060D  0E7E               	swapf	btemp,w
  2901  060E  0009               	retfie
  2902  060F                     __end_of_ISR:
  2903                           
  2904                           	psect	intentry
  2905  0004                     __pintentry:	
  2906                           ;incstack = 0
  2907                           ; Regs used in _ISR: [wreg+status,2+status,0+pclath+cstack]
  2908                           
  2909  0004                     interrupt_function:
  2910  007E                     saved_w	set	btemp
  2911  0004  00FE               	movwf	btemp
  2912  0005  0E03               	swapf	3,w
  2913  0006  00FB               	movwf	??_ISR
  2914  0007  080A               	movf	10,w
  2915  0008  00FC               	movwf	??_ISR+1
  2916  0009  120A  118A  2DE3   	ljmp	_ISR
  2917                           
  2918                           	psect	text11
  2919  0531                     __ptext11:	
  2920 ;; *************** function ___fltol *****************
  2921 ;; Defined at:
  2922 ;;		line 43 in file "C:\Program Files\Microchip\xc8\v2.31\pic\sources\c90\common\fltol.c"
  2923 ;; Parameters:    Size  Location     Type
  2924 ;;  f1              4    0[COMMON] void 
  2925 ;; Auto vars:     Size  Location     Type
  2926 ;;  exp1            1   10[COMMON] unsigned char 
  2927 ;;  sign1           1    9[COMMON] unsigned char 
  2928 ;; Return value:  Size  Location     Type
  2929 ;;                  4    0[COMMON] long 
  2930 ;; Registers used:
  2931 ;;		wreg, status,2, status,0
  2932 ;; Tracked objects:
  2933 ;;		On entry : 0/0
  2934 ;;		On exit  : 0/0
  2935 ;;		Unchanged: 0/0
  2936 ;; Data sizes:     COMMON   BANK0   BANK1   BANK3   BANK2
  2937 ;;      Params:         4       0       0       0       0
  2938 ;;      Locals:         2       0       0       0       0
  2939 ;;      Temps:          5       0       0       0       0
  2940 ;;      Totals:        11       0       0       0       0
  2941 ;;Total ram usage:       11 bytes
  2942 ;; Hardware stack levels used:    1
  2943 ;; This function calls:
  2944 ;;		Nothing
  2945 ;; This function is called by:
  2946 ;;		_ISR
  2947 ;; This function uses a non-reentrant model
  2948 ;;
  2949                           
  2950                           
  2951                           ;psect for function ___fltol
  2952  0531                     ___fltol:
  2953  0531                     i1l1341:	
  2954                           ;incstack = 0
  2955                           ; Regs used in ___fltol: [wreg+status,2+status,0]
  2956                           
  2957  0531  1003               	clrc
  2958  0532  0D72               	rlf	___fltol@f1+2,w
  2959  0533  0D73               	rlf	___fltol@f1+3,w
  2960  0534  00F4               	movwf	??___fltol
  2961  0535  0874               	movf	??___fltol,w
  2962  0536  00FA               	movwf	___fltol@exp1
  2963  0537  087A               	movf	___fltol@exp1,w
  2964  0538  1D03               	btfss	3,2
  2965  0539  2D3B               	goto	u123_21
  2966  053A  2D3C               	goto	u123_20
  2967  053B                     u123_21:
  2968  053B  2D45               	goto	i1l1347
  2969  053C                     u123_20:
  2970  053C                     i1l1343:
  2971  053C  3000               	movlw	0
  2972  053D  00F3               	movwf	?___fltol+3
  2973  053E  3000               	movlw	0
  2974  053F  00F2               	movwf	?___fltol+2
  2975  0540  3000               	movlw	0
  2976  0541  00F1               	movwf	?___fltol+1
  2977  0542  3000               	movlw	0
  2978  0543  00F0               	movwf	?___fltol
  2979  0544  2DAA               	goto	i1l383
  2980  0545                     i1l1347:
  2981  0545  0870               	movf	___fltol@f1,w
  2982  0546  00F4               	movwf	??___fltol
  2983  0547  0871               	movf	___fltol@f1+1,w
  2984  0548  00F5               	movwf	??___fltol+1
  2985  0549  0872               	movf	___fltol@f1+2,w
  2986  054A  00F6               	movwf	??___fltol+2
  2987  054B  0873               	movf	___fltol@f1+3,w
  2988  054C  00F7               	movwf	??___fltol+3
  2989  054D  301F               	movlw	31
  2990  054E                     u124_25:
  2991  054E  1003               	clrc
  2992  054F  0CF7               	rrf	??___fltol+3,f
  2993  0550  0CF6               	rrf	??___fltol+2,f
  2994  0551  0CF5               	rrf	??___fltol+1,f
  2995  0552  0CF4               	rrf	??___fltol,f
  2996  0553                     u124_20:
  2997  0553  3EFF               	addlw	-1
  2998  0554  1D03               	skipz
  2999  0555  2D4E               	goto	u124_25
  3000  0556  0874               	movf	??___fltol,w
  3001  0557  00F8               	movwf	??___fltol+4
  3002  0558  0878               	movf	??___fltol+4,w
  3003  0559  00F9               	movwf	___fltol@sign1
  3004  055A                     i1l1349:
  3005  055A  17F2               	bsf	___fltol@f1+2,7
  3006  055B                     i1l1351:
  3007  055B  30FF               	movlw	255
  3008  055C  05F0               	andwf	___fltol@f1,f
  3009  055D  30FF               	movlw	255
  3010  055E  05F1               	andwf	___fltol@f1+1,f
  3011  055F  30FF               	movlw	255
  3012  0560  05F2               	andwf	___fltol@f1+2,f
  3013  0561  3000               	movlw	0
  3014  0562  05F3               	andwf	___fltol@f1+3,f
  3015  0563                     i1l1353:
  3016  0563  3096               	movlw	150
  3017  0564  02FA               	subwf	___fltol@exp1,f
  3018  0565                     i1l1355:
  3019  0565  1FFA               	btfss	___fltol@exp1,7
  3020  0566  2D68               	goto	u125_21
  3021  0567  2D69               	goto	u125_20
  3022  0568                     u125_21:
  3023  0568  2D83               	goto	i1l1365
  3024  0569                     u125_20:
  3025  0569                     i1l1357:
  3026  0569  087A               	movf	___fltol@exp1,w
  3027  056A  3A80               	xorlw	128
  3028  056B  3E97               	addlw	151
  3029  056C  1803               	skipnc
  3030  056D  2D6F               	goto	u126_21
  3031  056E  2D70               	goto	u126_20
  3032  056F                     u126_21:
  3033  056F  2D71               	goto	i1l1363
  3034  0570                     u126_20:
  3035  0570  2D3C               	goto	i1l1343
  3036  0571                     i1l1363:
  3037  0571  3001               	movlw	1
  3038  0572                     u127_25:
  3039  0572  1003               	clrc
  3040  0573  0CF3               	rrf	___fltol@f1+3,f
  3041  0574  0CF2               	rrf	___fltol@f1+2,f
  3042  0575  0CF1               	rrf	___fltol@f1+1,f
  3043  0576  0CF0               	rrf	___fltol@f1,f
  3044  0577  3EFF               	addlw	-1
  3045  0578  1D03               	skipz
  3046  0579  2D72               	goto	u127_25
  3047  057A  3001               	movlw	1
  3048  057B  00F4               	movwf	??___fltol
  3049  057C  0874               	movf	??___fltol,w
  3050  057D  07FA               	addwf	___fltol@exp1,f
  3051  057E  1D03               	btfss	3,2
  3052  057F  2D81               	goto	u128_21
  3053  0580  2D82               	goto	u128_20
  3054  0581                     u128_21:
  3055  0581  2D71               	goto	i1l1363
  3056  0582                     u128_20:
  3057  0582  2D9A               	goto	i1l1373
  3058  0583                     i1l1365:
  3059  0583  3020               	movlw	32
  3060  0584  027A               	subwf	___fltol@exp1,w
  3061  0585  1C03               	skipc
  3062  0586  2D88               	goto	u129_21
  3063  0587  2D89               	goto	u129_20
  3064  0588                     u129_21:
  3065  0588  2D95               	goto	i1l390
  3066  0589                     u129_20:
  3067  0589  2D3C               	goto	i1l1343
  3068  058A                     i1l1371:
  3069  058A  3001               	movlw	1
  3070  058B  00F4               	movwf	??___fltol
  3071  058C                     u130_25:
  3072  058C  1003               	clrc
  3073  058D  0DF0               	rlf	___fltol@f1,f
  3074  058E  0DF1               	rlf	___fltol@f1+1,f
  3075  058F  0DF2               	rlf	___fltol@f1+2,f
  3076  0590  0DF3               	rlf	___fltol@f1+3,f
  3077  0591  0BF4               	decfsz	??___fltol,f
  3078  0592  2D8C               	goto	u130_25
  3079  0593  3001               	movlw	1
  3080  0594  02FA               	subwf	___fltol@exp1,f
  3081  0595                     i1l390:
  3082  0595  087A               	movf	___fltol@exp1,w
  3083  0596  1D03               	btfss	3,2
  3084  0597  2D99               	goto	u131_21
  3085  0598  2D9A               	goto	u131_20
  3086  0599                     u131_21:
  3087  0599  2D8A               	goto	i1l1371
  3088  059A                     u131_20:
  3089  059A                     i1l1373:
  3090  059A  0879               	movf	___fltol@sign1,w
  3091  059B  1903               	btfsc	3,2
  3092  059C  2D9E               	goto	u132_21
  3093  059D  2D9F               	goto	u132_20
  3094  059E                     u132_21:
  3095  059E  2DAA               	goto	i1l393
  3096  059F                     u132_20:
  3097  059F                     i1l1375:
  3098  059F  09F0               	comf	___fltol@f1,f
  3099  05A0  09F1               	comf	___fltol@f1+1,f
  3100  05A1  09F2               	comf	___fltol@f1+2,f
  3101  05A2  09F3               	comf	___fltol@f1+3,f
  3102  05A3  0AF0               	incf	___fltol@f1,f
  3103  05A4  1903               	skipnz
  3104  05A5  0AF1               	incf	___fltol@f1+1,f
  3105  05A6  1903               	skipnz
  3106  05A7  0AF2               	incf	___fltol@f1+2,f
  3107  05A8  1903               	skipnz
  3108  05A9  0AF3               	incf	___fltol@f1+3,f
  3109  05AA                     i1l393:
  3110  05AA                     i1l383:
  3111  05AA  0008               	return
  3112  05AB                     __end_of___fltol:
  3113  007E                     btemp	set	126	;btemp
  3114  007E                     wtemp0	set	126
  3115                           
  3116                           	psect	config
  3117                           
  3118                           ;Config register CONFIG1 @ 0x2007
  3119                           ;	Oscillator Selection bits
  3120                           ;	FOSC = XT, XT oscillator: Crystal/resonator on RA6/OSC2/CLKOUT and RA7/OSC1/CLKIN
  3121                           ;	Watchdog Timer Enable bit
  3122                           ;	WDTE = OFF, WDT disabled and can be enabled by SWDTEN bit of the WDTCON register
  3123                           ;	Power-up Timer Enable bit
  3124                           ;	PWRTE = OFF, PWRT disabled
  3125                           ;	RE3/MCLR pin function select bit
  3126                           ;	MCLRE = OFF, RE3/MCLR pin function is digital input, MCLR internally tied to VDD
  3127                           ;	Code Protection bit
  3128                           ;	CP = OFF, Program memory code protection is disabled
  3129                           ;	Data Code Protection bit
  3130                           ;	CPD = OFF, Data memory code protection is disabled
  3131                           ;	Brown Out Reset Selection bits
  3132                           ;	BOREN = OFF, BOR disabled
  3133                           ;	Internal External Switchover bit
  3134                           ;	IESO = OFF, Internal/External Switchover mode is disabled
  3135                           ;	Fail-Safe Clock Monitor Enabled bit
  3136                           ;	FCMEN = OFF, Fail-Safe Clock Monitor is disabled
  3137                           ;	Low Voltage Programming Enable bit
  3138                           ;	LVP = OFF, RB3 pin has digital I/O, HV on MCLR must be used for programming
  3139                           ;	In-Circuit Debugger Mode bit
  3140                           ;	DEBUG = 0x1, unprogrammed default
  3141  2007                     	org	8199
  3142  2007  20D1               	dw	8401
  3143                           
  3144                           ;Config register CONFIG2 @ 0x2008
  3145                           ;	Brown-out Reset Selection bit
  3146                           ;	BOR4V = BOR40V, Brown-out Reset set to 4.0V
  3147                           ;	Flash Program Memory Self Write Enable bits
  3148                           ;	WRT = OFF, Write protection off
  3149  2008                     	org	8200
  3150  2008  3FFF               	dw	16383

Data Sizes:
    Strings     0
    Constant    0
    Data        0
    BSS         0
    Persistent  5
    Stack       0

Auto Spaces:
    Space          Size  Autos    Used
    COMMON           14     13      13
    BANK0            80     50      55
    BANK1            80      0       0
    BANK3            96      0       0
    BANK2            96      0       0

Pointer List with Targets:

    None.

Critical Paths under _main in COMMON

    None.

Critical Paths under _ISR in COMMON

    _ISR->___fltol

Critical Paths under _main in BANK0

    _main->_conversion
    _conversion->___flmul
    ___flmul->___xxtofl

Critical Paths under _ISR in BANK0

    None.

Critical Paths under _main in BANK1

    None.

Critical Paths under _ISR in BANK1

    None.

Critical Paths under _main in BANK3

    None.

Critical Paths under _ISR in BANK3

    None.

Critical Paths under _main in BANK2

    None.

Critical Paths under _ISR in BANK2

    None.

Call Graph Tables:

 ---------------------------------------------------------------------------------
 (Depth) Function   	        Calls       Base Space   Used Autos Params    Refs
 ---------------------------------------------------------------------------------
 (0) _main                                                 1     1      0    2859
                                             49 BANK0      1     1      0
                              _Setup
                           _ValorADC
                         _conversion
                             _interr
 ---------------------------------------------------------------------------------
 (1) _interr                                               0     0      0       0
 ---------------------------------------------------------------------------------
 (1) _conversion                                           9     5      4    2837
                                             40 BANK0      9     5      4
                            ___flmul
                           ___xxtofl
 ---------------------------------------------------------------------------------
 (2) ___xxtofl                                            14    10      4     398
                                              0 BANK0     14    10      4
 ---------------------------------------------------------------------------------
 (2) ___flmul                                             26    18      8    2417
                                             14 BANK0     26    18      8
                          __Umul8_16
                           ___xxtofl (ARG)
 ---------------------------------------------------------------------------------
 (3) __Umul8_16                                            9     7      2     799
                                              0 BANK0      9     7      2
 ---------------------------------------------------------------------------------
 (1) _ValorADC                                             3     3      0      22
                                              0 BANK0      3     3      0
 ---------------------------------------------------------------------------------
 (1) _Setup                                                0     0      0       0
                             _SPI_ES
                         _config_ADC
 ---------------------------------------------------------------------------------
 (2) _config_ADC                                           0     0      0       0
 ---------------------------------------------------------------------------------
 (2) _SPI_ES                                               0     0      0       0
 ---------------------------------------------------------------------------------
 Estimated maximum stack depth 3
 ---------------------------------------------------------------------------------
 (Depth) Function   	        Calls       Base Space   Used Autos Params    Refs
 ---------------------------------------------------------------------------------
 (4) _ISR                                                  2     2      0     305
                                             11 COMMON     2     2      0
                            ___fltol
 ---------------------------------------------------------------------------------
 (5) ___fltol                                             11     7      4     305
                                              0 COMMON    11     7      4
 ---------------------------------------------------------------------------------
 Estimated maximum stack depth 5
 ---------------------------------------------------------------------------------

 Call Graph Graphs:

 _main (ROOT)
   _Setup
     _SPI_ES
     _config_ADC
   _ValorADC
   _conversion
     ___flmul
       __Umul8_16
       ___xxtofl (ARG)
     ___xxtofl
   _interr

 _ISR (ROOT)
   ___fltol

 Address spaces:
Name               Size   Autos  Total    Cost      Usage
BITCOMMON            E      0       0       0        0.0%
EEDATA             100      0       0       0        0.0%
NULL                 0      0       0       0        0.0%
CODE                 0      0       0       0        0.0%
COMMON               E      D       D       1       92.9%
BITSFR0              0      0       0       1        0.0%
SFR0                 0      0       0       1        0.0%
BITSFR1              0      0       0       2        0.0%
SFR1                 0      0       0       2        0.0%
STACK                0      0       0       2        0.0%
ABS                  0      0      44       3        0.0%
BITBANK0            50      0       0       4        0.0%
BITSFR3              0      0       0       4        0.0%
SFR3                 0      0       0       4        0.0%
BANK0               50     32      37       5       68.8%
BITSFR2              0      0       0       5        0.0%
SFR2                 0      0       0       5        0.0%
BITBANK1            50      0       0       6        0.0%
BANK1               50      0       0       7        0.0%
BITBANK3            60      0       0       8        0.0%
BANK3               60      0       0       9        0.0%
BITBANK2            60      0       0      10        0.0%
BANK2               60      0       0      11        0.0%
DATA                 0      0      44      12        0.0%


Microchip Technology PIC Macro Assembler V2.31 build 20201012212115 
Symbol Table                                                                                   Tue Feb 23 21:10:18 2021

            _SSPSTATbits 0094                       l21 0694                       l30 03AA  
                     l31 03B7                       l32 03C4                       l41 0474  
                     l33 03D1                       l25 0378                       l34 03DE  
                     l26 0462                       l43 0472                       l35 03EB  
                     l27 0383                       l36 03F8                       l28 0390  
                     l37 0405                       l29 039D                       l38 0412  
                     l39 041F                       l81 05E2                       l75 0677  
                     l78 0697                       _V1 0052      __Umul8_16@word_mpld 0026  
                    l111 068A                      l605 0650                      l630 0499  
                    l607 0662                      l632 0530                      l643 04FA  
                    l644 0506                      l636 04DE                      l592 02DF  
                    l586 0373                      l598 0367                      u700 065E  
                    _ISR 05E3                      u701 065D                      u710 0024  
                    u711 0023                      u720 002A                      u801 00E4  
                    u721 0029                      u802 00EB                      u730 002F  
                    u811 0110                      u803 00F2                      u731 002E  
                    u900 0249                      u812 0117                      u740 0050  
                    u821 012C                      u813 011E                      u741 004F  
                    u822 0133                      u750 0056                      u911 0255  
                    u823 013A                      u751 0055                      u680 064A  
                    u920 0271                      u912 025C                      u760 005B  
                    u681 0649                      u913 0263                      u905 0244  
                    u841 0162                      u761 005A                      u842 0169  
                    u770 0072                      u931 027D                      u851 018F  
                    u843 0170                      u835 013C                      u771 0071  
                    u932 0284                      u852 0196                      u780 0077  
                    u933 028B                      u925 026C                      u853 019D  
                    u781 0076                      u695 0651                      u871 01C5  
                    u791 00C8                      u960 02AF                      u872 01CC  
                    u792 00CF                      u961 02AE                      u945 028D  
                    u881 01F2                      u873 01D3                      u865 019F  
                    u793 00D6                      u882 01F9                      u955 02A4  
                    u891 021F                      u883 0200                      u980 02C3  
                    u892 0226                      u981 02C2                      u893 022D  
                    u990 02C8                      u991 02C7                      u975 02B2  
           ___flmul@aexp 0040             ___flmul@bexp 0041             ___flmul@sign 003B  
           ___flmul@temp 0046             ___flmul@prod 0042                     ?_ISR 0070  
           ___fltol@exp1 007A                     l1101 0037                     l1111 0050  
                   l1103 0039                     l1201 02FB                     l1121 0065  
                   l1113 0051                     l1105 0041                     l1211 0341  
                   l1203 0314                     l1131 0080                     l1123 006D  
                   l1115 0056                     l1107 0046                     l1301 042C  
                   l1061 063F                     l1221 0360                     l1213 034B  
                   l1205 031A                     l1141 0102                     l1133 0090  
                   l1125 0072                     l1117 005B                     l1109 004C  
                   l1311 046A                     l1063 0646                     l1223 036B  
                   l1215 034D                     l1207 0327                     l1151 0170  
                   l1143 011E                     l1135 009D                     l1127 0077  
                   l1119 0063                     l1231 0481                     l1081 0681  
                   l1073 068B                     l1313 046D                     l1065 064A  
                   l1217 035B                     l1209 0332                     l1161 0200  
                   l1153 0180                     l1145 013A                     l1137 00BA  
                   l1241 04AF                     l1233 0491                     l1083 0684  
                   l1075 0691                     l1331 066D                     l1307 042E  
                   l1067 0659                     l1059 063D                     l1219 035F  
                   l1171 0294                     l1163 0210                     l1155 019D  
                   l1147 0143                     l1139 00D6                     l1091 0020  
                   l1251 04E5                     l1243 04BC                     l1235 04A1  
                   l1227 0478                     l1085 0687                     l1077 0678  
                   l1333 0672                     l1309 0463                     l1069 065E  
                   l1181 02B9                     l1173 02A2                     l1165 023D  
                   l1157 01B6                     l1149 0153                     l1093 0024  
                   l1261 051E                     l1253 04F0                     l1245 04C3  
                   l1229 047D                     l1079 067D                     l1319 0473  
                   l1271 0377                     l1191 02DC                     l1175 02AB  
                   l1183 02BF                     l1167 0263                     l1159 01D3  
                   l1095 0025                     l1087 0013                     l1263 0523  
                   l1255 04F4                     l1247 04C7                     l1239 04AA  
                   l1335 0695                     l1329 0663                     l1281 03B0  
                   l1273 037E                     l1185 02C3                     l1177 02AF  
                   l1169 028B                     l1097 002A                     l1089 001A  
                   l1265 0527                     l1257 04FE                     l1249 04D5  
                   l1337 05AE                     l1427 0436                     l1291 03F1  
                   l1283 03BD                     l1275 0389                     l1195 02E4  
                   l1187 02C4                     l1179 02B0                     l1099 002F  
                   l1267 0528                     l1259 0508                     l1293 03FE  
                   l1285 03CA                     l1277 0396                     l1197 02E9  
                   l1189 02C8                     l1295 040B                     l1287 03D7  
                   l1279 03A3                     l1199 02F7                     l1391 0619  
                   l1297 0418                     l1289 03E4                     l1393 0624  
                   l1299 0425                     l1395 0634                     l1387 060F  
                   l1389 0614                     u1000 02DC                     u1001 02DB  
                   u1010 02E3                     u1011 02E2                     u1020 02E9  
                   u1100 04A1                     u1021 02E8                     u1101 04A0  
                   u1030 02FB                     u1031 02FA                     u1040 030A  
                   u1200 0523                     u1120 04C2                     u1201 0522  
                   u1121 04C1                     u1050 0327                     u1210 0527  
                   u1051 0326                     u1211 0526                     u1115 04B4  
                   u1220 0471                     u1060 0341                     u1140 04E4  
                   u1221 0470                     u1061 0340                     u1045 0305  
                   u1141 04E3                     u1070 035F                     u1071 035E  
                   u1055 0323                     u1135 04D6                     u1160 04F4  
                   u1080 047D                     u1065 033D                     u1161 04F3  
                   u1081 047C                     u1170 04FA                     u1090 0481  
                   u1171 04F9                     u1155 04E9                     u1091 0480  
                   u1180 04FE                     u1181 04FD                     u1190 0513  
                   u1195 050E                     u1357 0467                     i1l88 0608  
                   _vADC 0056                     _main 060F                     btemp 007E  
                   start 000C                    ??_ISR 007B            ___fltol@sign1 0079  
                  ?_main 0070          __end_of___flmul 0374          __end_of___fltol 05AB  
                  _ANSEL 0188                    i1l390 0595                    i1l383 05AA  
                  i1l393 05AA                    _PORTB 0006                    _PORTD 0008  
                  _TRISB 0086                    _Setup 0663              conversion@b 0050  
                  pclath 000A                    status 0003                    wtemp0 007E  
        __initialization 000F             __end_of_main 063A                   ??_main 0051  
       __end_of_ValorADC 0475                   ?_Setup 0070                   _ADCON1 009F  
                 _ADRESH 001E                   _ANSELH 0189                   i1l1341 0531  
                 i1l1351 055B                   i1l1343 053C                   i1l1353 0563  
                 i1l1371 058A                   i1l1363 0571                   i1l1355 0565  
                 i1l1347 0545                   i1l1373 059A                   i1l1357 0569  
                 i1l1365 0583                   i1l1349 055A                   i1l1381 05F1  
                 i1l1375 059F                   i1l1383 05F5                   i1l1385 0607  
                 i1l1377 05E3                   i1l1379 05EB                   u130_25 058C  
                 u131_20 059A                   u123_20 053C                   u131_21 0599  
                 u123_21 053B                   u132_20 059F                   u124_20 0553  
                 u132_21 059E                   u124_25 054E                   u125_20 0569  
                 u133_20 05EB                   u125_21 0568                   u133_21 05EA  
                 u126_20 0570                   u134_20 05F1                   u126_21 056F  
                 u134_21 05F0                   u127_25 0572                   u128_20 0582  
                 u128_21 0581                   u129_20 0589                   u129_21 0588  
                 _SPI_ES 0678                   _SSPBUF 0013                   _SSPCON 0014  
       __end_of___xxtofl 0531                ??___flmul 0036                ??___fltol 0074  
                 _interr 0695       __size_of__Umul8_16 0029                   saved_w 007E  
           ___xxtofl@arg 002A             ___xxtofl@exp 0029             ___xxtofl@val 0020  
__end_of__initialization 000F               ___fltol@f1 0070           __pcstackCOMMON 0070  
          __end_of_Setup 0678                  ??_Setup 0020                  ?_SPI_ES 0070  
      __end_of__Umul8_16 0663                ?_ValorADC 0070               __pmaintext 060F  
             __pintentry 0004                  ?_interr 0070               _config_ADC 068B  
              ?___xxtofl 0020                  _SSPSTAT 0094               _conversion 05AB  
        __size_of_SPI_ES 0013               ??_ValorADC 0020                  ___flmul 0013  
                ___fltol 0531                _ANSELbits 0188          __size_of_interr 0003  
                __ptext1 0695                  __ptext2 05AB                  __ptext3 0475  
                __ptext4 0013                  __ptext5 063A                  __ptext6 0374  
                __ptext7 0663                  __ptext8 068B                  __ptext9 0678  
           __size_of_ISR 002C               ??___xxtofl 0024     end_of_initialization 000F  
            ?_config_ADC 0070            ___xxtofl@sign 0028                _TRISAbits 0085  
              _TRISBbits 0086                _TRISCbits 0087                _TRISEbits 0089  
            ___flmul@grs 003C              ?_conversion 0048           __end_of_SPI_ES 068B  
         __end_of_interr 0698      start_initialization 000F              __end_of_ISR 060F  
              ValorADC@x 0022                 ??_SPI_ES 0020      __size_of_config_ADC 000A  
      __size_of_ValorADC 0101                __Umul8_16 063A                 ??_interr 0020  
    __size_of_conversion 0038                ___flmul@a 0032                ___flmul@b 002E  
              ___latbits 0002            __pcstackBANK0 0020        __size_of___xxtofl 00BC  
              __pnvBANK0 0052                 ?___flmul 002E                 ?___fltol 0070  
             ?__Umul8_16 0020           __size_of_Setup 0015        interrupt_function 0004  
               _PIE1bits 008C                 _PIR1bits 000C               _ADCON0bits 001F  
           ??_config_ADC 0020             ??_conversion 004C                 _ValorADC 0374  
     __end_of_config_ADC 0695              ??__Umul8_16 0022         __size_of___flmul 0361  
       __size_of___fltol 007A               _ANSELHbits 0189       __end_of_conversion 05E3  
               ___xxtofl 0475                 __ptext10 05E3                 __ptext11 0531  
          __size_of_main 002B               _INTCONbits 000B                 intlevel1 0000  
 __Umul8_16@multiplicand 0020     __Umul8_16@multiplier 0028        __Umul8_16@product 0024  
